(iCode.Engine.DungeonGenerator
DungeonGrid
p0
(dp1
S'toStream'
p2
(lp3
sS'majorNodes'
p4
(dp5
(I37
I36
tp6
(dp7
S'god'
p8
S'Water'
p9
sS'type'
p10
S'shrine'
p11
sS'maxRoads'
p12
I3
ss(I35
I12
tp13
(dp14
g10
S'boss'
p15
sg12
I0
ss(I42
I16
tp16
(dp17
g10
g15
sg12
I0
ss(I36
I46
tp18
(dp19
g10
g15
sg12
I0
ss(I36
I26
tp20
(dp21
g8
S'Nature'
p22
sg10
g11
sg12
I1
ss(I45
I34
tp23
(dp24
g8
g22
sg10
g11
sg12
I1
ss(I37
I2
tp25
(dp26
g10
g15
sg12
I0
ss(I15
I47
tp27
(dp28
g8
S'Death'
p29
sg10
g11
sg12
I3
ss(I43
I6
tp30
(dp31
g8
g9
sg10
g11
sg12
I3
ss(I44
I45
tp32
(dp33
g10
g15
sg12
I0
ss(I26
I32
tp34
(dp35
g8
g9
sg10
g11
sg12
I3
ss(I12
I37
tp36
(dp37
g8
g29
sg10
g11
sg12
I3
ss(I25
I15
tp38
(dp39
g10
g15
sg12
I0
ss(I6
I44
tp40
(dp41
g10
g15
sg12
I0
ss(I23
I6
tp42
(dp43
g8
g22
sg10
g11
sg12
I1
ss(I17
I14
tp44
(dp45
g10
g15
sg12
I0
ss(I7
I32
tp46
(dp47
g8
g9
sg10
g11
sg12
I3
ss(I3
I13
tp48
(dp49
g8
g29
sg10
g11
sg12
I3
ss(I25
I25
tp50
(dp51
g10
S'hub'
p52
sg12
I4
ss(I23
I47
tp53
(dp54
g10
g15
sg12
I0
ss(I3
I22
tp55
(dp56
g10
g15
sg12
I0
ss(I14
I7
tp57
(dp58
g10
g15
sg12
I0
ss(I13
I25
tp59
(dp60
g8
g22
sg10
g11
sg12
I1
ss(I5
I2
tp61
(dp62
g10
g15
sg12
I0
ss(I44
I22
tp63
(dp64
g10
g15
sg12
I0
sssS'riverTiles'
p65
(dp66
sS'climateGrid'
p67
(iCode.Engine.DungeonGenerator
ClimateStruct
p68
(dp69
S'tiles'
p70
(lp71
(lp72
S'0'
p73
ag73
ag73
ag73
ag73
ag73
ag73
ag73
ag73
ag73
ag73
ag73
ag73
ag73
ag73
ag73
ag73
ag73
ag73
ag73
ag73
ag73
ag73
ag73
ag73
ag73
ag73
ag73
ag73
ag73
ag73
ag73
ag73
ag73
ag73
aS'1'
p74
ag74
ag74
ag74
ag74
ag74
ag74
ag74
ag74
ag74
ag74
ag74
ag74
ag74
ag74
aa(lp75
g73
ag73
ag73
ag73
ag73
ag73
ag73
ag73
ag73
ag73
ag73
ag73
ag73
ag73
ag73
ag73
ag73
ag73
ag73
ag73
ag73
ag73
ag73
ag73
ag73
ag73
ag73
ag73
ag73
ag73
ag73
ag73
ag73
ag73
ag73
ag73
ag74
ag74
ag74
ag74
ag74
ag74
ag74
ag74
ag74
ag74
ag74
ag74
ag74
ag74
aa(lp76
g73
ag73
ag73
ag73
ag73
ag73
ag73
ag73
ag73
ag73
ag73
ag73
ag73
ag73
ag73
ag73
ag73
ag73
ag73
ag73
ag73
ag73
ag73
ag73
ag73
ag73
ag73
ag73
ag73
ag73
ag73
ag73
ag73
ag73
ag73
ag73
ag74
ag74
ag74
ag74
ag74
ag74
ag74
ag74
ag74
ag74
ag74
ag74
ag74
ag74
aa(lp77
g73
ag73
ag73
ag73
ag73
ag73
ag73
ag73
ag73
ag73
ag73
ag73
ag73
ag73
ag73
ag73
ag73
ag73
ag73
ag73
ag73
ag73
ag73
ag73
ag73
ag73
ag73
ag73
ag73
ag73
ag73
ag73
ag73
ag73
ag73
ag73
ag74
ag74
ag74
ag74
ag74
ag74
ag74
ag74
ag74
ag74
ag74
ag74
ag74
ag74
aa(lp78
g73
ag73
ag73
ag73
ag73
ag73
ag73
ag73
ag73
ag73
ag73
ag73
ag73
ag73
ag73
ag73
ag73
ag73
ag73
ag73
ag73
ag73
ag73
ag73
ag73
ag73
ag73
ag73
ag73
ag73
ag73
ag73
ag73
ag73
ag73
ag73
ag74
ag74
ag74
ag74
ag74
ag74
ag74
ag74
ag74
ag74
ag74
ag74
ag74
ag74
aa(lp79
g73
ag73
ag73
ag73
ag73
ag73
ag73
ag73
ag73
ag73
ag73
ag73
ag73
ag73
ag73
ag73
ag73
ag73
ag73
ag73
ag73
ag73
ag73
ag73
ag73
ag73
ag73
ag73
ag73
ag73
ag73
ag73
ag73
ag73
ag73
ag73
ag74
ag74
ag74
ag74
ag74
ag74
ag74
ag74
ag74
ag74
ag74
ag74
ag74
ag74
aa(lp80
g73
ag73
ag73
ag73
ag73
ag73
ag73
ag73
ag73
ag73
ag73
ag73
ag73
ag73
ag73
ag73
ag73
ag73
ag73
ag73
ag73
ag73
ag73
ag73
ag73
ag73
ag73
ag73
ag73
ag73
ag73
ag73
ag73
ag73
ag73
ag73
ag74
ag74
ag74
ag74
ag74
ag74
ag74
ag74
ag74
ag74
ag74
ag74
ag74
ag74
aa(lp81
g73
ag73
ag73
ag73
ag73
aS'2'
p82
ag82
ag82
ag82
ag82
ag82
ag73
ag73
ag73
ag73
ag73
ag73
ag73
ag73
ag73
ag73
ag73
ag73
ag73
ag73
ag73
ag73
ag73
ag73
ag73
ag73
ag73
ag73
ag73
ag73
ag73
ag74
ag74
ag74
ag74
ag74
ag74
ag74
ag74
ag74
ag74
ag74
ag74
ag74
ag74
aa(lp83
g73
ag73
ag82
ag82
ag82
ag82
ag82
ag82
ag82
ag82
ag82
ag82
ag73
ag73
ag73
ag73
ag73
ag73
ag73
ag73
ag73
ag73
ag73
ag73
ag73
ag73
ag73
ag73
ag73
ag73
ag73
ag73
ag73
ag73
ag73
ag73
ag74
ag74
ag74
ag74
ag74
ag74
ag74
ag74
ag74
ag74
ag74
ag74
ag74
ag74
aa(lp84
g73
ag82
ag82
ag82
ag82
ag82
ag82
ag82
ag82
ag82
ag82
ag82
ag73
ag73
ag73
ag73
ag73
ag73
ag73
ag73
ag73
ag73
ag73
ag73
ag73
ag73
ag73
ag73
ag73
ag73
ag73
ag73
ag73
ag73
ag73
ag73
ag74
ag74
ag74
ag74
ag74
ag74
ag74
ag74
ag74
ag74
ag74
ag74
ag74
ag74
aa(lp85
g82
ag82
ag82
ag82
ag82
ag82
ag82
ag82
ag82
ag82
ag82
ag82
ag73
ag73
ag73
ag73
ag73
ag73
ag73
ag73
ag73
ag73
ag73
ag73
ag73
ag73
ag73
ag73
ag73
ag73
ag73
ag73
ag73
ag73
ag73
ag73
ag73
ag74
ag74
ag74
ag74
ag74
ag74
ag74
ag74
ag74
ag74
ag74
ag74
ag73
aa(lp86
g82
ag82
ag82
ag82
ag82
ag82
ag82
ag82
ag82
ag82
ag82
ag82
ag73
ag73
ag73
ag73
ag73
ag73
ag73
ag74
ag74
ag73
ag73
ag73
ag73
ag73
ag73
ag73
ag73
ag73
ag73
ag73
ag73
ag73
ag73
ag73
ag73
ag73
ag73
ag73
ag73
ag73
ag73
ag73
ag73
ag73
ag73
ag73
ag73
ag73
aa(lp87
g82
ag82
ag82
ag82
ag82
ag82
ag82
ag82
ag82
ag82
ag82
ag73
ag73
ag73
ag73
ag73
ag73
ag73
ag74
ag74
ag74
ag74
ag73
ag73
ag73
ag73
ag73
ag73
ag73
ag73
ag73
ag73
ag73
ag73
ag73
ag73
ag73
ag73
ag73
ag73
ag73
ag73
ag73
ag73
ag73
ag73
ag73
ag73
ag73
ag73
aa(lp88
g74
ag82
ag82
ag82
ag82
ag82
ag82
ag82
ag82
ag82
ag82
ag73
ag73
ag73
ag73
ag73
ag73
ag74
ag74
ag74
ag74
ag74
ag74
ag73
ag73
ag73
ag73
ag73
ag73
ag73
ag73
ag73
ag73
ag73
ag73
ag73
ag73
ag73
ag73
ag73
ag73
ag73
ag73
ag73
ag73
ag73
ag73
ag73
ag73
ag73
aa(lp89
g74
ag74
ag82
ag82
ag82
ag82
ag82
ag82
ag82
ag82
ag82
ag73
ag73
ag73
ag73
ag73
ag74
ag74
ag74
ag74
ag74
ag74
ag74
ag74
ag73
ag73
ag73
ag73
ag73
ag73
ag73
ag73
ag73
ag73
ag73
ag73
ag73
ag73
ag73
ag73
ag73
ag73
ag73
ag73
ag73
ag73
ag73
ag73
ag73
ag73
aa(lp90
g74
ag74
ag74
ag74
ag74
ag82
ag82
ag82
ag82
ag82
ag82
ag73
ag73
ag73
ag73
ag74
ag74
ag74
ag74
ag74
ag74
ag74
ag74
ag74
ag74
ag73
ag73
ag73
ag73
ag73
ag73
ag73
ag73
ag73
ag73
ag73
ag73
ag73
ag73
ag73
ag73
ag73
ag73
ag73
ag73
ag73
ag73
ag73
ag73
ag73
aa(lp91
g74
ag74
ag74
ag74
ag74
ag74
ag82
ag82
ag82
ag82
ag73
ag73
ag73
ag73
ag73
ag74
ag74
ag74
ag74
ag74
ag74
ag74
ag74
ag74
ag74
ag74
ag73
ag73
ag73
ag73
ag73
ag73
ag73
ag73
ag73
ag73
ag73
ag73
ag73
ag73
ag73
ag73
ag73
ag73
ag73
ag73
ag73
ag73
ag73
ag73
aa(lp92
g74
ag74
ag74
ag74
ag74
ag74
ag74
ag82
ag82
ag73
ag73
ag73
ag73
ag73
ag73
ag74
ag74
ag74
ag74
ag74
ag74
ag74
ag74
ag74
ag74
ag74
ag74
ag73
ag73
ag73
ag73
ag73
ag73
ag73
ag73
ag73
ag73
ag73
ag73
ag73
ag73
ag73
ag73
ag73
ag73
ag73
ag73
ag73
ag73
ag73
aa(lp93
g74
ag74
ag74
ag74
ag74
ag74
ag74
ag74
ag73
ag73
ag73
ag73
ag73
ag73
ag73
ag74
ag74
ag74
ag74
ag74
ag74
ag74
ag74
ag74
ag74
ag74
ag74
ag73
ag73
ag73
ag73
ag73
ag73
ag73
ag73
ag73
ag73
ag73
ag73
ag73
ag73
ag73
ag73
ag73
ag73
ag73
ag73
ag73
ag73
ag73
aa(lp94
g74
ag74
ag74
ag74
ag74
ag74
ag74
ag74
ag73
ag73
ag73
ag73
ag73
ag73
ag73
ag74
ag74
ag74
ag74
ag74
ag74
ag74
ag74
ag74
ag74
ag74
ag74
ag73
ag73
ag73
ag73
ag73
ag73
ag73
ag73
ag73
ag73
ag73
ag73
ag73
ag73
ag73
ag73
ag73
ag73
ag73
ag73
ag73
ag73
ag73
aa(lp95
g74
ag74
ag74
ag74
ag74
ag74
ag74
ag74
ag73
ag73
ag73
ag73
ag73
ag73
ag73
ag73
ag74
ag74
ag74
ag74
ag74
ag74
ag74
ag74
ag74
ag74
ag74
ag73
ag73
ag73
ag73
ag73
ag73
ag73
ag73
ag73
ag73
ag73
ag73
ag73
ag73
ag73
ag73
ag73
ag73
ag73
ag73
ag73
ag73
ag73
aa(lp96
g74
ag74
ag74
ag74
ag74
ag74
ag74
ag74
ag73
ag73
ag73
ag73
ag73
ag73
ag73
ag73
ag74
ag74
ag74
ag74
ag74
ag74
ag74
ag74
ag74
ag74
ag74
ag73
ag73
ag73
ag73
ag73
ag73
ag73
ag73
ag73
ag73
ag73
ag73
ag73
ag73
ag73
ag73
ag73
ag73
ag73
ag73
ag73
ag73
ag73
aa(lp97
g74
ag74
ag74
ag74
ag74
ag74
ag74
ag74
ag74
ag73
ag73
ag73
ag73
ag73
ag73
ag73
ag74
ag74
ag74
ag74
ag74
ag74
ag74
ag74
ag74
ag74
ag74
ag73
ag73
ag73
ag73
ag73
ag73
ag73
ag73
ag73
ag73
ag73
ag73
ag73
ag73
ag73
ag73
ag73
ag73
ag73
ag73
ag73
ag73
ag73
aa(lp98
g74
ag74
ag74
ag74
ag74
ag74
ag74
ag74
ag74
ag74
ag73
ag73
ag73
ag73
ag73
ag74
ag74
ag74
ag74
ag74
ag74
ag74
ag74
ag74
ag74
ag74
ag74
ag73
ag73
ag73
ag73
ag73
ag73
ag73
ag73
ag73
ag73
ag73
ag73
ag73
ag73
ag73
ag73
ag73
ag73
ag73
ag73
ag73
ag73
ag73
aa(lp99
g74
ag74
ag74
ag74
ag74
ag74
ag74
ag74
ag74
ag74
ag74
ag73
ag73
ag73
ag73
ag74
ag74
ag74
ag74
ag74
ag74
ag74
ag74
ag74
ag74
ag74
ag74
ag73
ag73
ag73
ag73
ag73
ag73
ag73
ag73
ag73
ag73
ag73
ag73
ag73
ag73
ag73
ag73
ag73
ag73
ag73
ag73
ag73
ag73
ag73
aa(lp100
g74
ag74
ag74
ag74
ag74
ag74
ag74
ag74
ag74
ag74
ag74
ag74
ag73
ag73
ag74
ag74
ag74
ag74
ag74
ag74
ag74
ag74
ag74
ag74
ag74
ag74
ag74
ag73
ag73
ag73
ag73
ag73
ag73
ag73
ag73
ag73
ag73
ag73
ag73
ag73
ag73
ag73
ag73
ag73
ag73
ag73
ag73
ag73
ag73
ag73
aa(lp101
g74
ag74
ag74
ag74
ag74
ag74
ag74
ag74
ag74
ag74
ag74
ag74
ag74
ag74
ag74
ag74
ag74
ag74
ag74
ag74
ag74
ag74
ag74
ag74
ag74
ag74
ag74
ag73
ag73
ag73
ag73
ag73
ag73
ag73
ag73
ag73
ag73
ag73
ag73
ag73
ag73
ag73
ag73
ag73
ag73
ag73
ag73
ag73
ag73
ag73
aa(lp102
g74
ag74
ag74
ag74
ag74
ag74
ag74
ag74
ag74
ag74
ag74
ag74
ag74
ag74
ag74
ag74
ag74
ag74
ag74
ag74
ag74
ag74
ag74
ag74
ag74
ag74
ag74
ag74
ag73
ag73
ag73
ag73
ag73
ag73
ag73
ag73
ag73
ag73
ag73
ag73
ag73
ag73
ag73
ag73
ag73
ag73
ag73
ag73
ag73
ag73
aa(lp103
g74
ag74
ag74
ag74
ag74
ag74
ag74
ag74
ag74
ag74
ag74
ag74
ag74
ag74
ag74
ag74
ag74
ag74
ag74
ag74
ag74
ag74
ag74
ag74
ag74
ag74
ag74
ag74
ag74
ag73
ag73
ag73
ag73
ag73
ag73
ag73
ag73
ag73
ag73
ag73
ag73
ag73
ag73
ag73
ag73
ag73
ag73
ag73
ag73
ag73
aa(lp104
g74
ag74
ag74
ag74
ag74
ag74
ag74
ag74
ag74
ag74
ag74
ag74
ag74
ag74
ag74
ag74
ag74
ag74
ag74
ag74
ag74
ag74
ag74
ag74
ag74
ag74
ag74
ag74
ag74
ag74
ag73
ag73
ag73
ag73
ag73
ag73
ag73
ag73
ag73
ag73
ag73
ag73
ag73
ag73
ag73
ag73
ag73
ag73
ag73
ag73
aa(lp105
g74
ag74
ag74
ag74
ag74
ag74
ag74
ag74
ag74
ag74
ag74
ag74
ag74
ag74
ag74
ag74
ag74
ag74
ag74
ag74
ag74
ag74
ag74
ag74
ag74
ag74
ag74
ag74
ag74
ag74
ag74
ag73
ag73
ag73
ag73
ag73
ag73
ag73
ag73
ag73
ag73
ag73
ag73
ag73
ag73
ag73
ag73
ag73
ag73
ag73
aa(lp106
g74
ag74
ag74
ag74
ag74
ag74
ag74
ag74
ag74
ag74
ag74
ag74
ag74
ag74
ag74
ag74
ag74
ag74
ag74
ag74
ag74
ag74
ag74
ag74
ag74
ag74
ag74
ag74
ag74
ag74
ag74
ag74
ag74
ag74
ag74
ag74
ag73
ag73
ag73
ag73
ag73
ag73
ag73
ag73
ag73
ag73
ag73
ag73
ag73
ag73
aa(lp107
g74
ag74
ag74
ag74
ag74
ag74
ag74
ag74
ag74
ag74
ag74
ag82
ag82
ag82
ag82
ag82
ag82
ag74
ag74
ag74
ag74
ag74
ag74
ag74
ag74
ag74
ag74
ag74
ag74
ag74
ag74
ag74
ag74
ag74
ag74
ag74
ag74
ag74
ag74
ag73
ag73
ag73
ag73
ag73
ag73
ag73
ag73
ag73
ag73
ag73
aa(lp108
g74
ag74
ag74
ag74
ag74
ag74
ag74
ag74
ag74
ag74
ag82
ag82
ag82
ag82
ag82
ag82
ag82
ag82
ag74
ag74
ag74
ag74
ag74
ag74
ag74
ag74
ag74
ag74
ag74
ag74
ag74
ag74
ag74
ag74
ag74
ag74
ag74
ag74
ag74
ag74
ag73
ag73
ag73
ag73
ag73
ag73
ag73
ag73
ag73
ag73
aa(lp109
g74
ag74
ag74
ag74
ag74
ag74
ag74
ag74
ag74
ag82
ag82
ag82
ag82
ag82
ag82
ag82
ag82
ag82
ag82
ag74
ag74
ag74
ag74
ag74
ag74
ag74
ag74
ag74
ag74
ag74
ag74
ag74
ag74
ag74
ag74
ag74
ag74
ag74
ag74
ag74
ag74
ag73
ag73
ag73
ag73
ag73
ag73
ag73
ag73
ag73
aa(lp110
g74
ag74
ag74
ag74
ag74
ag74
ag74
ag74
ag82
ag82
ag82
ag82
ag82
ag82
ag82
ag82
ag82
ag82
ag82
ag82
ag74
ag74
ag74
ag74
ag74
ag74
ag74
ag74
ag74
ag74
ag74
ag74
ag74
ag74
ag74
ag74
ag74
ag74
ag74
ag74
ag74
ag74
ag73
ag73
ag73
ag73
ag73
ag73
ag73
ag73
aa(lp111
g74
ag74
ag74
ag74
ag74
ag74
ag82
ag82
ag82
ag82
ag82
ag82
ag82
ag82
ag82
ag82
ag82
ag82
ag82
ag82
ag82
ag74
ag74
ag74
ag74
ag74
ag74
ag74
ag74
ag74
ag74
ag74
ag74
ag74
ag74
ag74
ag74
ag74
ag74
ag74
ag74
ag74
ag73
ag73
ag73
ag73
ag73
ag73
ag73
ag73
aa(lp112
g74
ag74
ag74
ag74
ag74
ag82
ag82
ag82
ag82
ag82
ag82
ag82
ag82
ag82
ag82
ag82
ag82
ag82
ag82
ag82
ag82
ag82
ag74
ag74
ag74
ag74
ag74
ag74
ag74
ag74
ag74
ag74
ag74
ag74
ag74
ag74
ag74
ag74
ag74
ag74
ag74
ag74
ag74
ag73
ag73
ag73
ag73
ag73
ag73
ag73
aa(lp113
g74
ag74
ag74
ag74
ag82
ag82
ag82
ag82
ag82
ag82
ag82
ag82
ag82
ag82
ag82
ag82
ag82
ag82
ag82
ag82
ag82
ag82
ag74
ag74
ag74
ag74
ag74
ag74
ag74
ag82
ag82
ag82
ag82
ag74
ag74
ag74
ag74
ag74
ag74
ag74
ag74
ag74
ag74
ag74
ag73
ag73
ag73
ag73
ag73
ag73
aa(lp114
g74
ag74
ag74
ag82
ag82
ag82
ag82
ag82
ag82
ag82
ag82
ag82
ag82
ag82
ag82
ag82
ag82
ag82
ag82
ag82
ag82
ag82
ag74
ag74
ag74
ag74
ag74
ag82
ag82
ag82
ag82
ag82
ag82
ag82
ag74
ag74
ag74
ag74
ag74
ag74
ag74
ag74
ag74
ag74
ag74
ag73
ag73
ag73
ag73
ag73
aa(lp115
g74
ag74
ag74
ag82
ag82
ag82
ag82
ag82
ag82
ag82
ag82
ag82
ag82
ag82
ag82
ag82
ag82
ag82
ag82
ag82
ag82
ag82
ag82
ag74
ag74
ag82
ag82
ag82
ag82
ag82
ag82
ag82
ag82
ag82
ag82
ag74
ag74
ag74
ag74
ag74
ag74
ag74
ag74
ag74
ag74
ag74
ag73
ag73
ag73
ag73
aa(lp116
g74
ag74
ag82
ag82
ag82
ag82
ag82
ag82
ag82
ag82
ag82
ag82
ag82
ag82
ag82
ag82
ag82
ag82
ag82
ag82
ag82
ag82
ag82
ag82
ag82
ag82
ag82
ag82
ag82
ag82
ag82
ag82
ag82
ag82
ag82
ag82
ag74
ag74
ag74
ag74
ag74
ag74
ag74
ag74
ag74
ag74
ag74
ag73
ag73
ag73
aa(lp117
g82
ag82
ag82
ag82
ag82
ag82
ag82
ag82
ag82
ag82
ag82
ag82
ag82
ag82
ag82
ag82
ag82
ag82
ag82
ag82
ag82
ag82
ag82
ag82
ag82
ag82
ag82
ag82
ag82
ag82
ag82
ag82
ag82
ag82
ag82
ag82
ag82
ag74
ag74
ag74
ag74
ag74
ag74
ag74
ag74
ag74
ag74
ag74
ag73
ag73
aa(lp118
g82
ag82
ag82
ag82
ag82
ag82
ag82
ag82
ag82
ag82
ag82
ag82
ag82
ag82
ag82
ag82
ag82
ag82
ag82
ag82
ag82
ag82
ag82
ag82
ag82
ag82
ag82
ag82
ag82
ag82
ag82
ag82
ag82
ag82
ag82
ag82
ag82
ag82
ag74
ag74
ag74
ag74
ag74
ag74
ag74
ag74
ag74
ag74
ag74
ag73
aa(lp119
g82
ag82
ag82
ag82
ag82
ag82
ag82
ag82
ag82
ag82
ag82
ag82
ag82
ag82
ag82
ag82
ag82
ag82
ag82
ag82
ag82
ag82
ag82
ag82
ag82
ag82
ag82
ag82
ag82
ag82
ag82
ag82
ag82
ag82
ag82
ag82
ag82
ag82
ag82
ag74
ag74
ag74
ag74
ag74
ag74
ag74
ag74
ag74
ag74
ag74
aa(lp120
g82
ag82
ag82
ag82
ag82
ag82
ag82
ag82
ag82
ag82
ag82
ag82
ag82
ag82
ag82
ag82
ag82
ag82
ag82
ag82
ag82
ag82
ag82
ag82
ag82
ag82
ag82
ag82
ag82
ag82
ag82
ag82
ag82
ag82
ag82
ag82
ag82
ag82
ag82
ag74
ag74
ag74
ag74
ag74
ag74
ag74
ag74
ag74
ag74
ag74
aa(lp121
g82
ag82
ag82
ag82
ag82
ag82
ag82
ag82
ag82
ag82
ag82
ag82
ag82
ag82
ag82
ag82
ag82
ag82
ag82
ag82
ag82
ag82
ag82
ag82
ag82
ag82
ag82
ag82
ag82
ag82
ag82
ag82
ag82
ag82
ag82
ag82
ag82
ag82
ag82
ag82
ag74
ag74
ag74
ag74
ag74
ag74
ag74
ag74
ag74
ag74
aa(lp122
g82
ag82
ag82
ag82
ag82
ag82
ag82
ag82
ag82
ag82
ag82
ag82
ag82
ag82
ag82
ag82
ag82
ag82
ag82
ag82
ag82
ag82
ag82
ag82
ag82
ag82
ag82
ag82
ag82
ag82
ag82
ag82
ag82
ag82
ag82
ag82
ag82
ag82
ag82
ag82
ag82
ag74
ag74
ag74
ag74
ag74
ag74
ag74
ag74
ag74
aa(lp123
g82
ag82
ag82
ag82
ag82
ag82
ag82
ag82
ag82
ag82
ag82
ag82
ag82
ag82
ag82
ag82
ag82
ag82
ag82
ag82
ag82
ag82
ag82
ag82
ag82
ag82
ag82
ag82
ag82
ag82
ag82
ag82
ag82
ag82
ag82
ag82
ag82
ag82
ag82
ag82
ag82
ag82
ag74
ag74
ag74
ag74
ag74
ag74
ag74
ag74
aa(lp124
g82
ag82
ag82
ag82
ag82
ag82
ag82
ag82
ag82
ag82
ag82
ag82
ag82
ag82
ag82
ag82
ag82
ag82
ag82
ag82
ag82
ag82
ag82
ag82
ag82
ag82
ag82
ag82
ag82
ag82
ag82
ag82
ag82
ag82
ag82
ag82
ag82
ag82
ag82
ag82
ag82
ag82
ag82
ag74
ag74
ag74
ag74
ag74
ag74
ag74
aasS'size'
p125
(I50
I50
tp126
sbsS'floor'
p127
I2
sS'walls'
p128
(lp129
(lp130
I0
aI0
aI0
aI0
aI0
aI0
aI0
aI0
aI0
aI0
aI0
aI0
aI0
aI0
aI0
aI0
aI0
aI0
aI0
aI0
aI0
aI0
aI0
aI0
aI0
aI0
aI0
aI0
aI0
aI0
aI0
aI0
aI0
aI0
aI0
aI0
aI0
aI0
aI0
aI0
aI0
aI0
aI0
aI0
aI0
aI0
aI0
aI0
aI0
aI0
aa(lp131
I0
aI0
aI0
aI0
aI0
aI0
aI0
aI0
aI0
aI0
aI0
aI0
aI0
aI0
aI0
aI0
aI0
aI0
aI0
aI0
aI0
aI0
aI0
aI0
aI0
aI0
aI0
aI0
aI0
aI0
aI0
aI0
aI0
aI0
aI0
aI0
aI0
aI0
aI0
aI0
aI0
aI0
aI0
aI0
aI0
aI0
aI0
aI0
aI0
aI0
aa(lp132
I0
aI0
aI0
aI0
aI0
aI0
aI0
aI0
aI0
aI0
aI0
aI0
aI0
aI0
aI0
aI0
aI0
aI0
aI0
aI0
aI0
aI0
aI0
aI0
aI0
aI0
aI0
aI0
aI0
aI0
aI0
aI0
aI0
aI0
aI0
aI0
aI0
aI0
aI0
aI0
aI0
aI0
aI0
aI0
aI0
aI0
aI0
aI0
aI0
aI0
aa(lp133
I0
aI0
aI0
aI0
aI0
aI0
aI0
aI0
aI0
aI0
aI0
aI0
aI0
aI0
aI0
aI0
aI0
aI0
aI0
aI0
aI0
aI0
aI0
aI0
aI0
aI0
aI0
aI0
aI0
aI0
aI0
aI0
aI0
aI0
aI0
aI0
aI0
aI0
aI0
aI0
aI0
aI0
aI0
aI0
aI0
aI0
aI0
aI0
aI0
aI0
aa(lp134
I0
aI0
aI0
aI0
aI0
aI0
aI0
aI0
aI0
aI0
aI0
aI0
aI0
aI0
aI0
aI0
aI0
aI0
aI0
aI0
aI0
aI0
aI0
aI0
aI0
aI0
aI0
aI0
aI0
aI0
aI0
aI0
aI0
aI0
aI0
aI0
aI0
aI0
aI0
aI0
aI0
aI0
aI0
aI0
aI0
aI0
aI0
aI0
aI0
aI0
aa(lp135
I0
aI0
aI0
aI0
aI0
aI0
aI0
aI0
aI0
aI0
aI0
aI0
aI0
aI0
aI0
aI0
aI0
aI0
aI0
aI0
aI0
aI0
aI0
aI0
aI0
aI0
aI0
aI0
aI0
aI0
aI0
aI0
aI0
aI0
aI0
aI0
aI0
aI0
aI0
aI0
aI0
aI0
aI0
aI0
aI0
aI0
aI0
aI0
aI0
aI0
aa(lp136
I0
aI0
aI0
aI0
aI0
aI0
aI0
aI0
aI0
aI0
aI0
aI0
aI0
aI0
aI0
aI0
aI0
aI0
aI0
aI0
aI0
aI0
aI0
aI0
aI0
aI0
aI0
aI0
aI0
aI0
aI0
aI0
aI0
aI0
aI0
aI0
aI0
aI0
aI0
aI0
aI0
aI0
aI0
aI0
aI0
aI0
aI0
aI0
aI0
aI0
aa(lp137
I0
aI0
aI0
aI0
aI0
aI0
aI0
aI0
aI0
aI0
aI0
aI0
aI0
aI0
aI0
aI0
aI0
aI0
aI0
aI0
aI0
aI0
aI0
aI0
aI0
aI0
aI0
aI0
aI0
aI0
aI0
aI0
aI0
aI0
aI0
aI0
aI0
aI0
aI0
aI0
aI0
aI0
aI0
aI0
aI0
aI0
aI0
aI0
aI0
aI0
aa(lp138
I0
aI0
aI0
aI0
aI0
aI0
aI0
aI0
aI0
aI0
aI0
aI0
aI0
aI0
aI0
aI0
aI0
aI0
aI0
aI0
aI0
aI0
aI0
aI0
aI0
aI0
aI0
aI0
aI0
aI0
aI0
aI0
aI0
aI0
aI0
aI0
aI0
aI0
aI0
aI0
aI0
aI0
aI0
aI0
aI0
aI0
aI0
aI0
aI0
aI0
aa(lp139
I0
aI0
aI0
aI0
aI0
aI0
aI0
aI0
aI0
aI0
aI0
aI0
aI0
aI0
aI0
aI0
aI0
aI0
aI0
aI0
aI0
aI0
aI0
aI0
aI0
aI0
aI0
aI0
aI0
aI0
aI0
aI0
aI0
aI0
aI0
aI0
aI0
aI0
aI0
aI0
aI0
aI0
aI0
aI0
aI0
aI0
aI0
aI0
aI0
aI0
aa(lp140
I0
aI0
aI0
aI0
aI0
aI0
aI0
aI0
aI0
aI0
aI0
aI0
aI0
aI0
aI0
aI0
aI0
aI0
aI0
aI0
aI0
aI0
aI0
aI0
aI0
aI0
aI0
aI0
aI0
aI0
aI0
aI0
aI0
aI0
aI0
aI0
aI0
aI0
aI0
aI0
aI0
aI0
aI0
aI0
aI0
aI0
aI0
aI0
aI0
aI0
aa(lp141
I0
aI0
aI0
aI0
aI0
aI0
aI0
aI0
aI0
aI0
aI0
aI0
aI0
aI0
aI0
aI0
aI0
aI0
aI0
aI0
aI0
aI0
aI15
aI0
aI0
aI0
aI0
aI0
aI0
aI0
aI0
aI0
aI0
aI0
aI0
aI0
aI0
aI0
aI0
aI0
aI0
aI0
aI0
aI0
aI0
aI0
aI0
aI0
aI0
aI0
aa(lp142
I0
aI0
aI0
aI0
aI0
aI0
aI0
aI0
aI0
aI0
aI0
aI0
aI0
aI0
aI0
aI0
aI0
aI0
aI0
aI0
aI0
aI0
aI12
aI8
aI8
aI8
aI8
aI9
aI0
aI0
aI0
aI0
aI0
aI0
aI0
aI0
aI0
aI0
aI0
aI0
aI0
aI0
aI0
aI0
aI0
aI0
aI0
aI0
aI0
aI0
aa(lp143
I0
aI0
aI0
aI0
aI0
aI0
aI0
aI0
aI0
aI0
aI0
aI0
aI0
aI0
aI0
aI0
aI0
aI0
aI0
aI0
aI0
aI0
aI4
aI0
aI0
aI0
aI0
aI1
aI0
aI0
aI0
aI0
aI0
aI0
aI0
aI0
aI0
aI0
aI0
aI0
aI0
aI0
aI0
aI0
aI0
aI0
aI0
aI0
aI0
aI0
aa(lp144
I0
aI0
aI0
aI0
aI0
aI0
aI0
aI0
aI0
aI0
aI0
aI0
aI0
aI0
aI0
aI0
aI0
aI0
aI0
aI0
aI0
aI0
aI4
aI0
aI0
aI0
aI0
aI1
aI0
aI0
aI0
aI0
aI0
aI0
aI0
aI0
aI0
aI0
aI0
aI0
aI0
aI0
aI0
aI0
aI0
aI0
aI0
aI0
aI0
aI0
aa(lp145
I0
aI0
aI0
aI0
aI0
aI0
aI0
aI0
aI0
aI0
aI0
aI0
aI0
aI0
aI0
aI0
aI0
aI0
aI0
aI0
aI0
aI0
aI4
aI0
aI0
aI0
aI0
aI1
aI0
aI0
aI0
aI0
aI0
aI0
aI0
aI0
aI0
aI0
aI0
aI0
aI0
aI0
aI0
aI0
aI0
aI0
aI0
aI0
aI0
aI0
aa(lp146
I0
aI0
aI0
aI0
aI0
aI0
aI0
aI0
aI0
aI0
aI0
aI0
aI0
aI0
aI0
aI0
aI0
aI0
aI0
aI0
aI0
aI0
aI4
aI0
aI0
aI0
aI0
aI1
aI0
aI0
aI0
aI0
aI0
aI0
aI0
aI0
aI0
aI0
aI0
aI0
aI0
aI0
aI0
aI0
aI0
aI0
aI0
aI0
aI0
aI0
aa(lp147
I0
aI0
aI0
aI0
aI0
aI0
aI0
aI0
aI0
aI0
aI0
aI0
aI0
aI0
aI0
aI0
aI0
aI0
aI0
aI0
aI0
aI0
aI6
aI2
aI2
aI2
aI2
aI3
aI0
aI0
aI0
aI0
aI0
aI0
aI0
aI0
aI0
aI0
aI0
aI0
aI0
aI0
aI0
aI0
aI0
aI0
aI0
aI0
aI0
aI0
aa(lp148
I0
aI0
aI0
aI0
aI0
aI0
aI0
aI0
aI0
aI0
aI0
aI0
aI0
aI0
aI0
aI0
aI0
aI0
aI0
aI0
aI0
aI0
aI0
aI0
aI0
aI0
aI0
aI0
aI0
aI0
aI0
aI0
aI0
aI0
aI0
aI0
aI0
aI0
aI0
aI0
aI0
aI0
aI0
aI0
aI0
aI0
aI0
aI0
aI0
aI0
aa(lp149
I0
aI0
aI0
aI0
aI0
aI0
aI0
aI0
aI0
aI0
aI0
aI0
aI0
aI0
aI0
aI0
aI0
aI0
aI0
aI0
aI0
aI0
aI0
aI0
aI0
aI0
aI0
aI0
aI0
aI0
aI0
aI0
aI0
aI0
aI0
aI0
aI0
aI0
aI0
aI0
aI0
aI0
aI0
aI0
aI0
aI0
aI0
aI0
aI0
aI0
aa(lp150
I0
aI0
aI0
aI0
aI0
aI0
aI0
aI0
aI0
aI0
aI0
aI0
aI0
aI0
aI0
aI0
aI0
aI0
aI0
aI0
aI0
aI0
aI0
aI0
aI0
aI0
aI0
aI0
aI0
aI0
aI0
aI0
aI0
aI0
aI0
aI0
aI0
aI0
aI0
aI0
aI0
aI0
aI0
aI0
aI0
aI0
aI0
aI0
aI0
aI0
aa(lp151
I0
aI0
aI0
aI0
aI0
aI0
aI0
aI0
aI0
aI0
aI0
aI0
aI0
aI0
aI0
aI0
aI0
aI0
aI0
aI0
aI0
aI0
aI0
aI0
aI0
aI0
aI0
aI0
aI0
aI0
aI0
aI0
aI0
aI0
aI0
aI0
aI0
aI0
aI0
aI0
aI0
aI0
aI0
aI0
aI0
aI0
aI0
aI0
aI0
aI0
aa(lp152
I0
aI0
aI0
aI0
aI0
aI0
aI0
aI0
aI0
aI0
aI0
aI0
aI0
aI0
aI0
aI0
aI0
aI0
aI0
aI0
aI0
aI0
aI0
aI0
aI0
aI0
aI0
aI0
aI0
aI0
aI0
aI0
aI0
aI0
aI0
aI0
aI0
aI0
aI0
aI0
aI0
aI0
aI0
aI0
aI0
aI0
aI0
aI0
aI0
aI0
aa(lp153
I0
aI0
aI0
aI0
aI0
aI0
aI0
aI0
aI0
aI0
aI0
aI0
aI0
aI0
aI0
aI0
aI0
aI0
aI0
aI0
aI0
aI0
aI0
aI0
aI0
aI0
aI0
aI0
aI0
aI0
aI0
aI0
aI0
aI0
aI0
aI0
aI0
aI0
aI0
aI0
aI0
aI0
aI0
aI0
aI0
aI0
aI0
aI0
aI0
aI0
aa(lp154
I0
aI0
aI0
aI0
aI0
aI0
aI0
aI0
aI0
aI0
aI0
aI0
aI0
aI0
aI0
aI0
aI0
aI0
aI0
aI0
aI0
aI0
aI0
aI0
aI0
aI0
aI0
aI0
aI0
aI0
aI0
aI0
aI0
aI0
aI0
aI0
aI0
aI0
aI0
aI0
aI0
aI0
aI0
aI0
aI0
aI0
aI0
aI0
aI0
aI0
aa(lp155
I0
aI0
aI0
aI0
aI0
aI0
aI0
aI0
aI0
aI0
aI0
aI0
aI0
aI0
aI0
aI0
aI0
aI0
aI0
aI0
aI0
aI0
aI0
aI0
aI0
aI0
aI0
aI0
aI0
aI0
aI0
aI0
aI0
aI0
aI0
aI0
aI0
aI0
aI0
aI0
aI0
aI0
aI0
aI0
aI0
aI0
aI0
aI0
aI0
aI0
aa(lp156
I0
aI0
aI0
aI0
aI0
aI0
aI0
aI0
aI0
aI0
aI0
aI0
aI0
aI0
aI0
aI0
aI0
aI0
aI0
aI0
aI0
aI0
aI0
aI0
aI0
aI0
aI0
aI0
aI0
aI0
aI0
aI0
aI0
aI0
aI0
aI0
aI0
aI0
aI0
aI0
aI0
aI0
aI0
aI0
aI0
aI0
aI0
aI0
aI0
aI0
aa(lp157
I0
aI0
aI0
aI0
aI0
aI0
aI0
aI0
aI0
aI0
aI0
aI0
aI0
aI0
aI0
aI0
aI0
aI0
aI0
aI0
aI0
aI0
aI0
aI0
aI0
aI0
aI0
aI0
aI0
aI0
aI0
aI0
aI0
aI0
aI0
aI0
aI0
aI0
aI0
aI0
aI0
aI0
aI0
aI0
aI0
aI0
aI0
aI0
aI0
aI0
aa(lp158
I0
aI0
aI0
aI0
aI0
aI0
aI0
aI0
aI0
aI0
aI0
aI0
aI0
aI0
aI0
aI0
aI0
aI0
aI0
aI0
aI0
aI0
aI0
aI0
aI0
aI0
aI0
aI0
aI0
aI0
aI0
aI0
aI0
aI0
aI0
aI0
aI0
aI0
aI0
aI0
aI0
aI0
aI0
aI0
aI0
aI0
aI0
aI0
aI0
aI0
aa(lp159
I0
aI0
aI0
aI0
aI0
aI0
aI0
aI0
aI0
aI0
aI0
aI0
aI0
aI0
aI0
aI0
aI0
aI0
aI0
aI0
aI0
aI0
aI0
aI0
aI0
aI0
aI0
aI0
aI0
aI0
aI0
aI0
aI0
aI0
aI0
aI0
aI0
aI0
aI0
aI0
aI0
aI0
aI0
aI0
aI0
aI0
aI0
aI0
aI0
aI0
aa(lp160
I0
aI0
aI0
aI0
aI0
aI0
aI0
aI0
aI0
aI0
aI0
aI0
aI0
aI0
aI0
aI0
aI0
aI0
aI0
aI0
aI0
aI0
aI0
aI0
aI0
aI0
aI0
aI0
aI0
aI0
aI0
aI0
aI0
aI0
aI0
aI0
aI0
aI0
aI0
aI0
aI0
aI0
aI0
aI0
aI0
aI0
aI0
aI0
aI0
aI0
aa(lp161
I0
aI0
aI0
aI0
aI0
aI0
aI0
aI0
aI0
aI0
aI0
aI0
aI0
aI0
aI0
aI0
aI0
aI0
aI0
aI0
aI0
aI0
aI0
aI0
aI0
aI0
aI0
aI0
aI0
aI0
aI0
aI0
aI0
aI0
aI0
aI0
aI0
aI0
aI0
aI0
aI0
aI0
aI0
aI0
aI0
aI0
aI0
aI0
aI0
aI0
aa(lp162
I0
aI0
aI0
aI0
aI0
aI0
aI0
aI0
aI0
aI0
aI0
aI0
aI0
aI0
aI0
aI0
aI0
aI0
aI0
aI0
aI0
aI0
aI0
aI0
aI0
aI0
aI0
aI0
aI0
aI0
aI0
aI0
aI0
aI0
aI0
aI0
aI0
aI0
aI0
aI0
aI0
aI0
aI0
aI0
aI0
aI0
aI0
aI0
aI0
aI0
aa(lp163
I0
aI0
aI0
aI0
aI0
aI0
aI0
aI0
aI0
aI0
aI0
aI0
aI0
aI0
aI0
aI0
aI0
aI0
aI0
aI0
aI0
aI0
aI0
aI0
aI0
aI0
aI0
aI0
aI0
aI0
aI0
aI0
aI0
aI0
aI0
aI0
aI0
aI0
aI0
aI0
aI0
aI0
aI0
aI0
aI0
aI0
aI0
aI0
aI0
aI0
aa(lp164
I0
aI0
aI0
aI0
aI0
aI0
aI0
aI0
aI0
aI0
aI0
aI0
aI0
aI0
aI0
aI0
aI0
aI0
aI0
aI0
aI0
aI0
aI0
aI0
aI0
aI0
aI0
aI0
aI0
aI0
aI0
aI0
aI0
aI0
aI0
aI0
aI0
aI0
aI0
aI0
aI0
aI0
aI0
aI0
aI0
aI0
aI0
aI0
aI0
aI0
aa(lp165
I0
aI0
aI0
aI0
aI0
aI0
aI0
aI0
aI0
aI0
aI0
aI0
aI0
aI0
aI0
aI0
aI0
aI0
aI0
aI0
aI0
aI0
aI0
aI0
aI0
aI0
aI0
aI0
aI0
aI0
aI0
aI0
aI0
aI0
aI0
aI0
aI0
aI0
aI0
aI0
aI0
aI0
aI0
aI0
aI0
aI0
aI0
aI0
aI0
aI0
aa(lp166
I0
aI0
aI0
aI0
aI0
aI0
aI0
aI0
aI0
aI0
aI0
aI0
aI0
aI0
aI0
aI0
aI0
aI0
aI0
aI0
aI0
aI0
aI0
aI0
aI0
aI0
aI0
aI0
aI0
aI0
aI0
aI0
aI0
aI0
aI0
aI0
aI0
aI0
aI0
aI0
aI0
aI0
aI0
aI0
aI0
aI0
aI0
aI0
aI0
aI0
aa(lp167
I0
aI0
aI0
aI0
aI0
aI0
aI0
aI0
aI0
aI0
aI0
aI0
aI0
aI0
aI0
aI0
aI0
aI0
aI0
aI0
aI0
aI0
aI0
aI0
aI0
aI0
aI0
aI0
aI0
aI0
aI0
aI0
aI0
aI0
aI0
aI0
aI0
aI0
aI0
aI0
aI0
aI0
aI0
aI0
aI0
aI0
aI0
aI0
aI0
aI0
aa(lp168
I0
aI0
aI0
aI0
aI0
aI0
aI0
aI0
aI0
aI0
aI0
aI0
aI0
aI0
aI0
aI0
aI0
aI0
aI0
aI0
aI0
aI0
aI0
aI0
aI0
aI0
aI0
aI0
aI0
aI0
aI0
aI0
aI0
aI0
aI0
aI0
aI0
aI0
aI0
aI0
aI0
aI0
aI0
aI0
aI0
aI0
aI0
aI0
aI0
aI0
aa(lp169
I0
aI0
aI0
aI0
aI0
aI0
aI0
aI0
aI0
aI0
aI0
aI0
aI0
aI0
aI0
aI0
aI0
aI0
aI0
aI0
aI0
aI0
aI0
aI0
aI0
aI0
aI0
aI0
aI0
aI0
aI0
aI0
aI0
aI0
aI0
aI0
aI0
aI0
aI0
aI0
aI0
aI0
aI0
aI0
aI0
aI0
aI0
aI0
aI0
aI0
aa(lp170
I0
aI0
aI0
aI0
aI0
aI0
aI0
aI0
aI0
aI0
aI0
aI0
aI0
aI0
aI0
aI0
aI0
aI0
aI0
aI0
aI0
aI0
aI0
aI0
aI0
aI0
aI0
aI0
aI0
aI0
aI0
aI0
aI0
aI0
aI0
aI0
aI0
aI0
aI0
aI0
aI0
aI0
aI0
aI0
aI0
aI0
aI0
aI0
aI0
aI0
aa(lp171
I0
aI0
aI0
aI0
aI0
aI0
aI0
aI0
aI0
aI0
aI0
aI0
aI0
aI0
aI0
aI0
aI0
aI0
aI0
aI0
aI0
aI0
aI0
aI0
aI0
aI0
aI0
aI0
aI0
aI0
aI0
aI0
aI0
aI0
aI0
aI0
aI0
aI0
aI0
aI0
aI0
aI0
aI0
aI0
aI0
aI0
aI0
aI0
aI0
aI0
aa(lp172
I0
aI0
aI0
aI0
aI0
aI0
aI0
aI0
aI0
aI0
aI0
aI0
aI0
aI0
aI0
aI0
aI0
aI0
aI0
aI0
aI0
aI0
aI0
aI0
aI0
aI0
aI0
aI0
aI0
aI0
aI0
aI0
aI0
aI0
aI0
aI0
aI0
aI0
aI0
aI0
aI0
aI0
aI0
aI0
aI0
aI0
aI0
aI0
aI0
aI0
aa(lp173
I0
aI0
aI0
aI0
aI0
aI0
aI0
aI0
aI0
aI0
aI0
aI0
aI0
aI0
aI0
aI0
aI0
aI0
aI0
aI0
aI0
aI0
aI0
aI0
aI0
aI0
aI0
aI0
aI0
aI0
aI0
aI0
aI0
aI0
aI0
aI0
aI0
aI0
aI0
aI0
aI0
aI0
aI0
aI0
aI0
aI0
aI0
aI0
aI0
aI0
aa(lp174
I0
aI0
aI0
aI0
aI0
aI0
aI0
aI0
aI0
aI0
aI0
aI0
aI0
aI0
aI0
aI0
aI0
aI0
aI0
aI0
aI0
aI0
aI0
aI0
aI0
aI0
aI0
aI0
aI0
aI0
aI0
aI0
aI0
aI0
aI0
aI0
aI0
aI0
aI0
aI0
aI0
aI0
aI0
aI0
aI0
aI0
aI0
aI0
aI0
aI0
aa(lp175
I0
aI0
aI0
aI0
aI0
aI0
aI0
aI0
aI0
aI0
aI0
aI0
aI0
aI0
aI0
aI0
aI0
aI0
aI0
aI0
aI0
aI0
aI0
aI0
aI0
aI0
aI0
aI0
aI0
aI0
aI0
aI0
aI0
aI0
aI0
aI0
aI0
aI0
aI0
aI0
aI0
aI0
aI0
aI0
aI0
aI0
aI0
aI0
aI0
aI0
aa(lp176
I0
aI0
aI0
aI0
aI0
aI0
aI0
aI0
aI0
aI0
aI0
aI0
aI0
aI0
aI0
aI0
aI0
aI0
aI0
aI0
aI0
aI0
aI0
aI0
aI0
aI0
aI0
aI0
aI0
aI0
aI0
aI0
aI0
aI0
aI0
aI0
aI0
aI0
aI0
aI0
aI0
aI0
aI0
aI0
aI0
aI0
aI0
aI0
aI0
aI0
aa(lp177
I0
aI0
aI0
aI0
aI0
aI0
aI0
aI0
aI0
aI0
aI0
aI0
aI0
aI0
aI0
aI0
aI0
aI0
aI0
aI0
aI0
aI0
aI0
aI0
aI0
aI0
aI0
aI0
aI0
aI0
aI0
aI0
aI0
aI0
aI0
aI0
aI0
aI0
aI0
aI0
aI0
aI0
aI0
aI0
aI0
aI0
aI0
aI0
aI0
aI0
aa(lp178
I0
aI0
aI0
aI0
aI0
aI0
aI0
aI0
aI0
aI0
aI0
aI0
aI0
aI0
aI0
aI0
aI0
aI0
aI0
aI0
aI0
aI0
aI0
aI0
aI0
aI0
aI0
aI0
aI0
aI0
aI0
aI0
aI0
aI0
aI0
aI0
aI0
aI0
aI0
aI0
aI0
aI0
aI0
aI0
aI0
aI0
aI0
aI0
aI0
aI0
aa(lp179
I0
aI0
aI0
aI0
aI0
aI0
aI0
aI0
aI0
aI0
aI0
aI0
aI0
aI0
aI0
aI0
aI0
aI0
aI0
aI0
aI0
aI0
aI0
aI0
aI0
aI0
aI0
aI0
aI0
aI0
aI0
aI0
aI0
aI0
aI0
aI0
aI0
aI0
aI0
aI0
aI0
aI0
aI0
aI0
aI0
aI0
aI0
aI0
aI0
aI0
aasS'roomsToUpdate'
p180
(lp181
(iCode.Engine.DungeonGenerator
DungeonRoom
p182
(dp183
S'isStairRoom'
p184
I00
sS'spawnableTiles'
p185
(lp186
(I22
I12
tp187
a(I22
I13
tp188
a(I22
I14
tp189
a(I22
I15
tp190
a(I22
I16
tp191
a(I22
I17
tp192
a(I23
I12
tp193
a(I23
I13
tp194
a(I23
I14
tp195
a(I23
I15
tp196
a(I23
I16
tp197
a(I23
I17
tp198
a(I24
I12
tp199
a(I24
I13
tp200
a(I24
I14
tp201
a(I24
I15
tp202
a(I24
I16
tp203
a(I24
I17
tp204
a(I25
I12
tp205
a(I25
I13
tp206
a(I25
I14
tp207
a(I25
I15
tp208
a(I25
I16
tp209
a(I25
I17
tp210
a(I26
I12
tp211
a(I26
I13
tp212
a(I26
I14
tp213
a(I26
I15
tp214
a(I26
I16
tp215
a(I26
I17
tp216
a(I27
I12
tp217
a(I27
I13
tp218
a(I27
I14
tp219
a(I27
I15
tp220
a(I27
I16
tp221
a(I27
I17
tp222
asS'neighbours'
p223
(lp224
sS'traps'
p225
(lp226
sg127
I2
sS'climateTypes'
p227
(lp228
g73
ag74
ag74
ag74
ag74
ag74
ag73
ag73
ag74
ag74
ag74
ag74
ag73
ag73
ag73
ag74
ag74
ag74
ag73
ag73
ag73
ag73
ag74
ag74
ag73
ag73
ag73
ag73
ag73
ag74
ag73
ag73
ag73
ag73
ag73
ag73
asS'forceEmpty'
p229
I00
sS'encounterInitialized'
p230
I01
sS'lastSpawn'
p231
I1366484266
sS'pos'
p232
(lp233
I22
aI12
asS'units'
p234
(lp235
ccopy_reg
_reconstructor
p236
(cUnits
EnemyUnit
p237
c__builtin__
object
p238
Ntp239
Rp240
(dp241
S'attackMoveTarget'
p242
NsS'stunTime'
p243
I0
sS'startAng'
p244
F1.3164864977643574e-09
sS'buffs'
p245
(iCode.Units.Buffs
BuffStruct
p246
(dp247
S'unit'
p248
g240
sg245
(lp249
sbsS'lastPos'
p250
(lp251
F4470.0
aF2533.0
asS'frame'
p252
F1.3
sS'offset'
p253
I0
sS'frameRate'
p254
F0.10000000000000001
sg232
(lp255
F4470.0
aF2534.5
asS'abilList'
p256
(lp257
(iCode.Units.Abilities
EnemyProjectileShotAbil
p258
(dp259
S'projectileSpeed'
p260
I3
sS'isSpell'
p261
I00
sS'pic'
p262
S'GreenSlimeShot'
p263
sS'parameters'
p264
(dp265
S'animationTime'
p266
(lp267
S'10'
p268
asS'damageType'
p269
(lp270
S'9'
p271
asS'pic'
p272
(lp273
g263
asS'range'
p274
(lp275
S'300'
p276
asS'cooldown'
p277
(lp278
S'20'
p279
asS'speed'
p280
(lp281
S'3'
p282
assS'hitsAllies'
p283
I00
sS'level'
p284
I0
sS'hitsEnemies'
p285
I01
sS'animationOverride'
p286
(lp287
sS'timeTaken'
p288
I30
sS'damage'
p289
I5
sS'range'
p290
F300.0
sS'cooldown'
p291
(lp292
I0
aI20
asS'user'
p293
g240
sS'DamageType'
p294
I9
sS'owner'
p295
g240
sS'hitFrames'
p296
(lp297
I2
asS'hitsUser'
p298
I00
sba(iCode.Units.Abilities
EnemyMultiShotAbil
p299
(dp300
g260
I1
sg261
I00
sg262
S'GreenSlimeShot'
p301
sg264
(dp302
S'animationTime'
p303
(lp304
S'20'
p305
asS'damageType'
p306
(lp307
g271
asS'pic'
p308
(lp309
g301
asS'range'
p310
(lp311
S'300'
p312
asS'cooldown'
p313
(lp314
S'50'
p315
asS'shots'
p316
(lp317
S'10'
p318
asS'speed'
p319
(lp320
g74
assg283
I00
sg284
I0
sg285
I01
sg286
(lp321
sg288
I30
sg289
I5
sg290
F300.0
sg291
(lp322
I0
aI50
asg293
g240
sg294
I9
sg295
g240
sg296
(lp323
I2
asS'numShots'
p324
I10
sg298
I00
sba(iCode.Units.Abilities
EnemyFireball
p325
(dp326
g261
I00
sS'targetSquare'
p327
(I203
I100
tp328
sg262
S'FireballExplosion'
p329
sg264
(dp330
S'cooldown'
p331
(lp332
S'200'
p333
asS'animationTime'
p334
(lp335
S'40'
p336
asS'pic'
p337
(lp338
g329
asS'damage'
p339
(lp340
S'25'
p341
asS'damageType'
p342
(lp343
S'5'
p344
assg283
I00
sg284
I0
sg285
I01
sg286
(lp345
sS'flashingSquares'
p346
(lp347
(iCode.Engine.Effects
FlashingSquare
p348
(dp349
S'time'
p350
I0
sS'midTime'
p351
I10
sS'coord'
p352
(lp353
I202
aI100
asg127
I2
sba(iCode.Engine.Effects
FlashingSquare
p354
(dp355
g350
I0
sg351
I10
sg352
(lp356
I202
aI99
asg127
I2
sba(iCode.Engine.Effects
FlashingSquare
p357
(dp358
g350
I0
sg351
I10
sg352
(lp359
I204
aI100
asg127
I2
sba(iCode.Engine.Effects
FlashingSquare
p360
(dp361
g350
I0
sg351
I10
sg352
(lp362
I204
aI99
asg127
I2
sba(iCode.Engine.Effects
FlashingSquare
p363
(dp364
g350
I0
sg351
I10
sg352
(lp365
I203
aI99
asg127
I2
sba(iCode.Engine.Effects
FlashingSquare
p366
(dp367
g350
I0
sg351
I10
sg352
(lp368
I204
aI101
asg127
I2
sba(iCode.Engine.Effects
FlashingSquare
p369
(dp370
g350
I0
sg351
I10
sg352
(lp371
I202
aI101
asg127
I2
sba(iCode.Engine.Effects
FlashingSquare
p372
(dp373
g350
I0
sg351
I10
sg352
(lp374
I203
aI101
asg127
I2
sba(iCode.Engine.Effects
FlashingSquare
p375
(dp376
g350
I0
sg351
I10
sg352
(lp377
I203
aI100
asg127
I2
sbasg288
I40
sg289
F25.0
sg290
I80
sg291
(lp378
I0
aI200
asg293
g240
sg294
I5
sg295
g240
sg296
(lp379
I2
asg298
I00
sbasS'alerted'
p380
I0
sS'scanType'
p381
S'Stop'
p382
sS'reachedTarget'
p383
I00
sS'casting'
p384
I00
sS'startPos'
p385
(lp386
I3703
aI2641
asS'targAng'
p387
F2.30488781741948
sS'speed'
p388
(lp389
F9.1848509936051484e-17
aF1.5
asS'moveTarget'
p390
(I4252
I1958
tp391
sS'currState'
p392
S'walk'
p393
sg125
I10
sS'disabledCount'
p394
I0
sS'damageTime'
p395
I0
sS'nextDistanceCheck'
p396
I10
sS'angle'
p397
F1.5707963267948966
sS'enemyType'
p398
S'Serpent'
p399
sS'walkList'
p400
(lp401
(I223
I143
tp402
a(I223
I142
tp403
a(I223
I141
tp404
a(I223
I140
tp405
a(I223
I139
tp406
a(I223
I138
tp407
a(I223
I137
tp408
a(I223
I136
tp409
a(I223
I135
tp410
a(I223
I134
tp411
a(I223
I133
tp412
a(I223
I132
tp413
a(I223
I131
tp414
a(I223
I130
tp415
a(I223
I129
tp416
a(I223
I128
tp417
a(I223
I127
tp418
asg127
I2
sS'attackCooldown'
p419
I0
sS'selected'
p420
I00
sS'maxHealth'
p421
I110
sS'sameAttackTime'
p422
(lp423
I48
aI70
asS'damageAngle'
p424
F-0.43935118072815821
sS'itemHeld'
p425
I0
sS'attackMoveOffset'
p426
(lp427
F-107.71304858445951
aF-58.822760619888392
asS'stunFactor'
p428
F0.80000000000000004
sS'health'
p429
F60.534228697192724
sS'lastHitBy'
p430
g236
(cUnits
PlayerUnit
p431
g238
Ntp432
Rp433
(dp434
S'lastHit'
p435
I652
sg243
I0
sS'lastHitTargets'
p436
(lp437
(iUnits
TargetDummy
p438
(dp439
g435
I0
sg125
I5
sS'readyToSleep'
p440
I00
sg232
(lp441
I4455
aI1931
asg127
I2
sbasg245
(iCode.Units.Buffs
BuffStruct
p442
(dp443
g248
g433
sg245
(lp444
sbsg250
(lp445
F4319.6134947611808
aF2200.3651975605526
asg252
I0
sg254
F0.59999999999999998
sg232
(lp446
F4319.6134947611808
aF2200.3651975605526
asg256
(lp447
(iCode.Units.Abilities
BasicAttack
p448
(dp449
g261
I00
sg283
I00
sg284
I0
sg285
I01
sg286
(lp450
sg288
I2
sg290
I20
sg291
(lp451
I0
aI0
asg293
Nsg260
I8
sg295
g433
sg296
(lp452
I0
asg298
I00
sbasS'inPortal'
p453
I00
sS'favour'
p454
(iCode.Units.Gods
FavourStruct
p455
(dp456
S'gods'
p457
(lp458
(iCode.Units.Gods
Nature
p459
(dp460
S'unitLastCoord'
p461
(I215
I109
tp462
sS'maxFlowerRepititions'
p463
I20
sS'unitLastPos'
p464
(lp465
F4319.6134947611808
aF2200.3651975605526
asS'worshipTime'
p466
I0
sS'worshipPos'
p467
(lp468
F4319.6134947611808
aF2200.3651975605526
asS'interactedAt'
p469
(dp470
sS'beingWorshipped'
p471
I00
sg454
F-6.42506364730803
sS'worshippedAt'
p472
(dp473
sg248
g433
sS'worshipFrame'
p474
I0
sS'flowerRepititions'
p475
I3
sba(iCode.Units.Gods
Water
p476
(dp477
g461
(lp478
I0
aI0
asg463
I20
sg464
(lp479
F4319.6134947611808
aF2200.3651975605526
asg466
I0
sg467
(lp480
F4319.6134947611808
aF2200.3651975605526
asg469
(dp481
sg471
I00
sg454
F-2.302499999999962
sg472
(dp482
sg248
g433
sg474
I0
sg475
I0
sba(iCode.Units.Gods
Death
p483
(dp484
g461
(lp485
I0
aI0
asg463
I20
sg464
(lp486
F4319.6134947611808
aF2200.3651975605526
asg466
I0
sg467
(lp487
F4319.6134947611808
aF2200.3651975605526
asg469
(dp488
(iCode.Engine.DungeonGenerator
DungeonRoom
p489
(dp490
g184
I00
sg185
(lp491
(I32
I12
tp492
a(I32
I13
tp493
a(I32
I14
tp494
a(I32
I15
tp495
a(I32
I16
tp496
a(I32
I17
tp497
a(I33
I12
tp498
a(I33
I13
tp499
a(I33
I14
tp500
a(I33
I15
tp501
a(I33
I16
tp502
a(I33
I17
tp503
a(I34
I12
tp504
a(I34
I13
tp505
a(I34
I14
tp506
a(I34
I15
tp507
a(I34
I16
tp508
a(I34
I17
tp509
a(I35
I12
tp510
a(I35
I13
tp511
a(I35
I14
tp512
a(I35
I15
tp513
a(I35
I16
tp514
a(I35
I17
tp515
a(I36
I12
tp516
a(I36
I13
tp517
a(I36
I14
tp518
a(I36
I15
tp519
a(I36
I16
tp520
a(I36
I17
tp521
a(I37
I12
tp522
a(I37
I13
tp523
a(I37
I14
tp524
a(I37
I15
tp525
a(I37
I16
tp526
a(I37
I17
tp527
asg223
(lp528
sg225
(lp529
sg127
I1
sg227
(lp530
g82
ag82
ag82
ag82
ag82
ag82
ag82
ag82
ag82
ag82
ag82
ag82
ag82
ag82
ag82
ag82
ag82
ag82
ag82
ag82
ag82
ag82
ag82
ag82
ag74
ag82
ag82
ag82
ag82
ag82
ag74
ag74
ag74
ag82
ag82
ag73
asg229
I00
sg230
I01
sg231
I1366483975
sg232
(lp531
I32
aI12
asg234
(lp532
g236
(g237
g238
Ntp533
Rp534
(dp535
g242
Nsg243
I0
sg244
F5.6119334604555613
sg245
(iCode.Units.Buffs
BuffStruct
p536
(dp537
g248
g534
sg245
(lp538
sbsg250
(lp539
F5453.2138024842798
aF2407.5956998045285
asg252
I0
sg253
I0
sg254
F0.40000000000000002
sg232
(lp540
F5453.2138024842798
aF2407.5956998045285
asg256
(lp541
(iCode.Units.Abilities
EnemyProjectileShotAbil
p542
(dp543
g260
I3
sg261
I00
sg262
S'SkeletonShot'
p544
sg264
(dp545
S'cooldown'
p546
(lp547
S'40'
p548
asS'damageType'
p549
(lp550
S'8'
p551
asS'pic'
p552
(lp553
g544
asS'speed'
p554
(lp555
g282
assg283
I00
sg284
I0
sg285
I01
sg286
(lp556
sg288
I30
sg289
I5
sg290
I80
sg291
(lp557
I0
aI40
asg293
g534
sg294
I8
sg295
g534
sg296
(lp558
I2
asg298
I00
sbasg380
I99
sg381
g382
sg383
I00
sg384
I00
sg385
(lp559
I6029
aI1950
asg387
F0.029501045117820465
sg388
(lp560
F-0.5777842254149782
aF-0.81618955449185548
asg390
(I266
I137
tp561
sg392
S'dead'
p562
sg125
I10
sg394
I0
sg395
I0
sg396
I2
sg397
F-2.5420625341785779
sg398
S'Skeleton'
p563
sg400
(lp564
(I266
I137
tp565
a(I266
I136
tp566
a(I266
I135
tp567
a(I266
I134
tp568
a(I266
I133
tp569
a(I266
I132
tp570
a(I266
I131
tp571
a(I266
I130
tp572
a(I266
I129
tp573
a(I266
I128
tp574
a(I266
I127
tp575
a(I266
I126
tp576
a(I266
I125
tp577
a(I266
I124
tp578
a(I266
I123
tp579
a(I267
I122
tp580
a(I268
I121
tp581
a(I269
I120
tp582
a(I270
I119
tp583
a(I271
I118
tp584
a(I272
I117
tp585
a(I273
I116
tp586
a(I274
I115
tp587
a(I275
I114
tp588
a(I276
I113
tp589
a(I277
I112
tp590
a(I278
I111
tp591
a(I279
I110
tp592
a(I280
I109
tp593
a(I281
I108
tp594
a(I282
I107
tp595
a(I283
I106
tp596
asg127
I1
sg419
I0
sg420
I00
sg421
I20
sg422
(lp597
I19
aI70
asg424
F-2.5420625341785779
sg425
I0
sg426
(lp598
F-3.571705033395292
aF-75.144246437746261
asg428
F0.81999999999999973
sg429
F0.0
sg430
g433
sg435
I1170
sS'picture'
p599
S'Skeleton'
p600
sS'animationFrames'
p601
(lp602
I6
aI6
ag562
asS'angleFacing'
p603
F3.7411227730010084
sS'scanAngle'
p604
F3.1415926535897931
sS'onGround'
p605
I00
sS'attacked'
p606
I01
sS'rageTable'
p607
(dp608
sg440
I01
sS'attackBonuses'
p609
(dp610
sS'randSeed'
p611
F0.24982017315238769
sS'investigateAngle'
p612
I0
sS'backupSeed'
p613
F0.075968044388272205
sS'stats'
p614
(dp615
g599
g600
sS'defense'
p616
I100
sS'ability'
p617
(lp618
(lp619
cCode.Units.Abilities
EnemyProjectileShotAbil
p620
a(lp621
S'-pic'
p622
ag544
aS'-cooldown'
p623
ag548
aS'-speed'
p624
ag282
aS'-damageType'
p625
ag551
aaasS'knockbackResistance'
p626
I0
sS'treasureChance'
p627
F0.080000000000000002
sS'walkSpeed'
p628
I2
sS'chargeDist'
p629
I80
sS'resistances'
p630
(lp631
F0.0
aF0.29999999999999999
aF0.59999999999999998
aF-0.59999999999999998
aF0.10000000000000001
aF-0.5
aF0.40000000000000002
aF-1.0
aF0.59999999999999998
aF1.0
asS'stunResistance'
p632
I0
sS'attack'
p633
I100
sS'listenRad'
p634
I90
sg429
I20
sS'experience'
p635
I50
sS'activateRange'
p636
I230
sS'keywords'
p637
(dp638
S'-'
p639
F0.0
ssS'alertedListenRad'
p640
I200
sS'unitType'
p641
I3
ssS'logicTickIn'
p642
I2
sS'deathInvestigated'
p643
I00
sS'scanDeltaAng'
p644
I0
sS'target'
p645
g433
sS'attackCallback'
p646
NsS'knockback'
p647
(lp648
I0
aI0
asS'room'
p649
g489
sg296
(lp650
I2
asg284
I1
sS'scanTime'
p651
I0
sS'enabled'
p652
I01
sS'patrolDest'
p653
(lp654
I266
aI137
asg290
I5
sS'moveState'
p655
g380
sS'team'
p656
I2
sS'scanDeltaTime'
p657
I13
sS'lastDamageAmount'
p658
I0
sS'abilCurrentlyUsing'
p659
g542
sbag236
(g237
g238
Ntp660
Rp661
(dp662
g242
Nsg243
I0
sg244
F3.1415926535897931
sg245
(iCode.Units.Buffs
BuffStruct
p663
(dp664
g248
g661
sg245
(lp665
sbsg250
(lp666
F5662.5233227701183
aF2334.4799429293739
asg252
F1.2000000000000002
sg253
I0
sg254
F0.40000000000000002
sg232
(lp667
F5662.5233227701183
aF2334.4799429293739
asg256
(lp668
(iCode.Units.Abilities
EnemyProjectileShotAbil
p669
(dp670
g260
I3
sg261
I00
sg262
g544
sg264
(dp671
S'cooldown'
p672
(lp673
g548
asS'damageType'
p674
(lp675
g551
asS'pic'
p676
(lp677
g544
asS'speed'
p678
(lp679
g282
assg283
I00
sg284
I0
sg285
I01
sg286
(lp680
sg288
I30
sg289
I5
sg290
I80
sg291
(lp681
I0
aI40
asg293
g661
sg294
I8
sg295
g661
sg296
(lp682
I2
asg298
I00
sbasg380
I99
sg381
S'Passive'
p683
sg383
I00
sg384
I00
sg385
(lp684
I5956
aI2518
asg387
F2.3300520604468922
sg388
(lp685
F-0.98089290588365707
aF-0.19454847001997991
asg390
(I281
I126
tp686
sg392
g562
sg125
I10
sg394
I0
sg395
I0
sg396
I5
sg397
F-2.8484746874332316
sg398
g563
sg400
(lp687
(I281
I126
tp688
asg127
I1
sg419
I0
sg420
I00
sg421
I20
sg422
(lp689
I46
aI70
asg424
F-2.8484746874332316
sg425
I0
sg426
(lp690
F-44.635532402047005
aF-0.69779194359212693
asg428
F0.049999999999999822
sg429
F0.0
sg430
g433
sg435
I1528
sg599
g600
sg601
g602
sg603
F3.4347106197463546
sg604
F3.1415926535897931
sg605
I00
sg606
I01
sg607
(dp691
sg440
I01
sg609
(dp692
sg611
F0.43410515569650587
sg612
I0
sg613
F0.10022813600954195
sg614
(dp693
g599
g600
sg616
I100
sg617
g618
sg626
I0
sg627
F0.080000000000000002
sg628
I2
sg629
I80
sg630
g631
sg632
I0
sg633
I100
sg634
I90
sg429
I20
sg635
I50
sg636
I230
sg637
g638
sg640
I200
sg641
I3
ssg642
I2
sg643
I00
sg644
I0
sg645
g433
sg646
Nsg647
(lp694
I0
aI0
asg649
g489
sg296
(lp695
sg284
I1
sg651
I61
sg652
I01
sg653
(I5853
I2611
tp696
sg290
I5
sg655
g380
sg656
I2
sg657
I14
sg658
I0
sg659
g669
sbag236
(g237
g238
Ntp697
Rp698
(dp699
g242
Nsg243
I0
sg244
F1.9065442821230407
sg245
(iCode.Units.Buffs
BuffStruct
p700
(dp701
g248
g698
sg245
(lp702
sbsg250
(lp703
F5328.0163370983928
aF2290.2398164208375
asg252
I0
sg253
I0
sg254
F0.40000000000000002
sg232
(lp704
F5328.0163370983928
aF2290.2398164208375
asg256
(lp705
(iCode.Units.Abilities
EnemyProjectileShotAbil
p706
(dp707
g260
I3
sg261
I00
sg262
g544
sg264
(dp708
S'cooldown'
p709
(lp710
g548
asS'damageType'
p711
(lp712
g551
asS'pic'
p713
(lp714
g544
asS'speed'
p715
(lp716
g282
assg283
I00
sg284
I0
sg285
I01
sg286
(lp717
sg288
I30
sg289
I5
sg290
I80
sg291
(lp718
I0
aI40
asg293
g698
sg294
I8
sg295
g698
sg296
(lp719
I2
asg298
I00
sbasg380
I99
sg381
g683
sg383
I00
sg384
I00
sg385
(lp720
I6005
aI2550
asg387
F5.0975589307565592
sg388
(lp721
F-0.89330401563902384
aF-0.44945292928536423
asg390
(I295
I119
tp722
sg392
g562
sg125
I10
sg394
I0
sg395
I0
sg396
I7
sg397
F-2.5934847164285597
sg398
g563
sg400
(lp723
(I295
I119
tp724
a(I295
I118
tp725
a(I295
I117
tp726
a(I295
I116
tp727
a(I295
I115
tp728
a(I295
I114
tp729
a(I295
I113
tp730
a(I295
I112
tp731
a(I295
I111
tp732
asg127
I1
sg419
I0
sg420
I00
sg421
I20
sg422
(lp733
I54
aI70
asg424
F-2.5934847164285597
sg425
I0
sg426
(lp734
F-65.928972445853631
aF-21.689953210813901
asg428
F0.3999999999999998
sg429
F0.0
sg430
g433
sg435
I1015
sg599
g600
sg601
g602
sg603
F3.6897005907510265
sg604
F-1.5707963267948966
sg605
I00
sg606
I01
sg607
(dp735
sg440
I01
sg609
(dp736
sg611
F0.12642658950174401
sg612
I0
sg613
F0.89517492729576242
sg614
(dp737
g599
g600
sg616
I100
sg617
g618
sg626
I0
sg627
F0.080000000000000002
sg628
I2
sg629
I80
sg630
g631
sg632
I0
sg633
I100
sg634
I90
sg429
I20
sg635
I50
sg636
I230
sg637
g638
sg640
I200
sg641
I3
ssg642
I2
sg643
I00
sg644
I0
sg645
g433
sg646
Nsg647
(lp738
I0
aI0
asg649
g489
sg296
(lp739
I2
asg284
I1
sg651
I0
sg652
I01
sg653
(lp740
I295
aI119
asg290
I5
sg655
g380
sg656
I2
sg657
I4
sg658
I0
sg659
g706
sbag236
(g237
g238
Ntp741
Rp742
(dp743
g242
Nsg243
I0
sg244
F4.2248730317395085
sg245
(iCode.Units.Buffs
BuffStruct
p744
(dp745
g248
g742
sg245
(lp746
sbsg250
(lp747
F5607.5110566867379
aF2489.37639535566
asg252
F0.40000000000000002
sg253
I0
sg254
F0.40000000000000002
sg232
(lp748
F5607.5110566867379
aF2489.37639535566
asg256
(lp749
(iCode.Units.Abilities
EnemyProjectileShotAbil
p750
(dp751
g260
I3
sg261
I00
sg262
S'Slash'
p752
sg264
(dp753
S'damageType'
p754
(lp755
g74
asS'pic'
p756
(lp757
g752
asS'damage'
p758
(lp759
g74
asS'range'
p760
(lp761
S'55'
p762
asS'cooldown'
p763
(lp764
S'70'
p765
asS'speed'
p766
(lp767
g282
assg283
I00
sg284
I0
sg285
I01
sg286
(lp768
sg288
I30
sg289
F1.0
sg290
F55.0
sg291
(lp769
I0
aI70
asg293
g742
sg294
I1
sg295
g742
sg296
(lp770
I2
asg298
I00
sbasg380
I99
sg381
g683
sg383
I00
sg384
I00
sg385
(lp771
I5512
aI2688
asg387
F5.6460172398775796
sg388
(lp772
F-0.33342408727091932
aF-0.17161986489784448
asg390
(I283
I138
tp773
sg392
g562
sg125
I10
sg394
I0
sg395
I0
sg396
I10
sg397
F-1.8942735523345924
sg398
S'Orc'
p774
sg400
(lp775
(I283
I138
tp776
a(I283
I137
tp777
a(I283
I136
tp778
a(I283
I135
tp779
a(I283
I134
tp780
a(I283
I133
tp781
a(I283
I132
tp782
a(I283
I131
tp783
a(I283
I130
tp784
a(I283
I129
tp785
a(I283
I128
tp786
a(I283
I127
tp787
a(I283
I126
tp788
a(I283
I125
tp789
a(I283
I124
tp790
a(I283
I123
tp791
a(I283
I122
tp792
a(I283
I121
tp793
a(I283
I120
tp794
a(I283
I119
tp795
a(I283
I118
tp796
a(I283
I117
tp797
a(I283
I116
tp798
a(I283
I115
tp799
a(I283
I114
tp800
asg127
I1
sg419
I0
sg420
I00
sg421
I20
sg422
(lp801
I61
aI70
asg424
F-0.48225200888294156
sg425
I0
sg426
(lp802
F-22.131304676541269
aF35.796078956765236
asg428
F0.15999999999999992
sg429
F0.0
sg430
g236
(g237
g238
Ntp803
Rp804
(dp805
g242
Nsg243
I0
sg244
F4.7123889803846897
sg245
(iCode.Units.Buffs
BuffStruct
p806
(dp807
g248
g804
sg245
(lp808
sbsg250
(lp809
F5637.3514404225471
aF2476.6498392384465
asg252
F0.40000000000000002
sg253
I0
sg254
F0.40000000000000002
sg232
(lp810
F5637.3514404225471
aF2476.6498392384465
asg256
(lp811
(iCode.Units.Abilities
EnemyProjectileShotAbil
p812
(dp813
g260
I3
sg261
I00
sg262
g544
sg264
(dp814
S'cooldown'
p815
(lp816
g548
asS'damageType'
p817
(lp818
g551
asS'pic'
p819
(lp820
g544
asS'speed'
p821
(lp822
g282
assg283
I00
sg284
I0
sg285
I01
sg286
(lp823
sg288
I30
sg289
I5
sg290
I80
sg291
(lp824
I0
aI40
asg293
g804
sg294
I8
sg295
g804
sg296
(lp825
I2
asg298
I00
sbasg380
I99
sg381
g382
sg383
I00
sg384
I00
sg385
(lp826
I5656
aI2821
asg387
F1.6614606269416565
sg388
(lp827
F0.5693281340086066
aF0.82211037934469477
asg390
(I269
I106
tp828
sg392
g562
sg125
I10
sg394
I0
sg395
I0
sg396
I1
sg397
F0.8022143189922305
sg398
g563
sg400
(lp829
(I269
I106
tp830
a(I269
I107
tp831
a(I269
I108
tp832
a(I269
I109
tp833
a(I269
I110
tp834
a(I269
I111
tp835
a(I269
I112
tp836
a(I269
I113
tp837
a(I269
I114
tp838
a(I269
I115
tp839
a(I269
I116
tp840
a(I269
I117
tp841
a(I269
I118
tp842
a(I269
I119
tp843
a(I269
I120
tp844
a(I269
I121
tp845
a(I269
I122
tp846
a(I269
I123
tp847
a(I269
I124
tp848
a(I269
I125
tp849
a(I269
I126
tp850
a(I269
I127
tp851
a(I269
I128
tp852
a(I270
I129
tp853
a(I271
I130
tp854
a(I272
I131
tp855
a(I273
I132
tp856
a(I274
I133
tp857
asg127
I1
sg419
I0
sg420
I00
sg421
I20
sg422
(lp858
I60
aI70
asg424
F0.8022143189922305
sg425
I0
sg426
(lp859
F24.422629346018184
aF43.238532167299482
asg428
F0.7699999999999998
sg429
F0.0
sg430
g433
sg435
I1351
sg599
g600
sg601
g602
sg603
F0.8022143189922305
sg604
I0
sg605
I00
sg606
I01
sg607
(dp860
sg440
I01
sg609
(dp861
sg611
F0.38239117378514864
sg612
I0
sg613
F0.63532515597515538
sg614
(dp862
g599
g600
sS'treasurePackage'
p863
S'F1EasyEnemy'
p864
sg616
I100
sg617
g618
sg626
I0
sg627
F0.080000000000000002
sg628
I2
sg629
I80
sg630
g631
sg632
I0
sg633
I100
sg634
I90
sg429
I20
sg635
I50
sg636
I230
sg637
g638
sg640
I200
sg641
I3
ssg642
I2
sg643
I00
sg644
I0
sg645
g433
sg646
Nsg647
(lp865
I0
aI0
asg649
g489
sg296
(lp866
sg284
I1
sg651
I0
sg652
I01
sg653
(lp867
I269
aI106
asg290
I5
sg655
g380
sg656
I2
sg657
I37
sg658
I0
sg659
g812
sbsg435
I1341
sg599
S'Orc'
p868
sg601
g602
sg603
F5.6913779844726369
sg604
F-1.5707963267948966
sg605
I00
sg606
I01
sg607
(dp869
sg440
I01
sg609
(dp870
sg611
F0.066086473112536348
sg612
I0
sg613
F0.34780172588317571
sg614
(dp871
g599
g868
sg616
I80
sg617
(lp872
(lp873
g620
a(lp874
S'-pic'
p875
ag752
aS'-cooldown'
p876
ag765
aS'-speed'
p877
ag282
aS'-damage'
p878
ag74
aS'-range'
p879
ag762
aS'-damageType'
p880
ag74
aaasg626
I0
sg627
F0.080000000000000002
sg628
F2.5
sg629
I45
sg630
(lp881
F0.0
aF-0.20000000000000001
aF-0.20000000000000001
aF0.10000000000000001
aF0.0
aF-0.10000000000000001
aF-0.10000000000000001
aF0.0
aF0.0
aF-0.20000000000000001
asg632
I0
sg633
I80
sg634
I90
sg429
I20
sg635
I50
sg636
I230
sg637
(dp882
g639
F0.0
ssg640
I200
sg641
I4
ssg642
I2
sg643
I00
sg644
I0
sg645
g433
sg646
Nsg647
(lp883
I0
aI0
asg649
g489
sg296
(lp884
sg284
I1
sg651
I0
sg652
I01
sg653
(lp885
I283
aI138
asg290
I5
sg655
g380
sg656
I2
sg657
I10
sg658
I0
sg659
g750
sbag236
(g237
g238
Ntp886
Rp887
(dp888
g242
Nsg243
I0
sg244
F2.1924870312270754
sg245
(iCode.Units.Buffs
BuffStruct
p889
(dp890
g248
g887
sg245
(lp891
sbsg250
(lp892
F5425.4623456130157
aF2374.3491569006724
asg252
F0.80000000000000004
sg253
I0
sg254
F0.40000000000000002
sg232
(lp893
F5425.4623456130157
aF2374.3491569006724
asg256
(lp894
(iCode.Units.Abilities
EnemyProjectileShotAbil
p895
(dp896
g260
I3
sg261
I00
sg262
g752
sg264
(dp897
S'damageType'
p898
(lp899
g74
asS'pic'
p900
(lp901
g752
asS'damage'
p902
(lp903
g74
asS'range'
p904
(lp905
g762
asS'cooldown'
p906
(lp907
g765
asS'speed'
p908
(lp909
g282
assg283
I00
sg284
I0
sg285
I01
sg286
(lp910
sg288
I30
sg289
F1.0
sg290
F55.0
sg291
(lp911
I0
aI70
asg293
g887
sg294
I1
sg295
g887
sg296
(lp912
I2
asg298
I00
sbasg380
I99
sg381
g683
sg383
I00
sg384
I00
sg385
(lp913
I5706
aI2444
asg387
F1.2555775383037238
sg388
(lp914
F-1.019622118737052
aF-0.72309801201646584
asg390
(I278
I113
tp915
sg392
g562
sg125
I10
sg394
I0
sg395
I0
sg396
I10
sg397
F-2.7757818871476458
sg398
g774
sg400
(lp916
(I278
I113
tp917
a(I277
I113
tp918
a(I276
I113
tp919
a(I275
I113
tp920
a(I274
I113
tp921
a(I273
I113
tp922
a(I272
I113
tp923
a(I271
I113
tp924
a(I270
I113
tp925
a(I269
I114
tp926
a(I268
I115
tp927
a(I267
I116
tp928
asg127
I1
sg419
I0
sg420
I00
sg421
I20
sg422
(lp929
I41
aI70
asg424
F-2.7757818871476458
sg425
I0
sg426
(lp930
F26.65612966978756
aF-12.326224032208332
asg428
F0.19999999999999996
sg429
F0.0
sg430
g433
sg435
I1162
sg599
g868
sg601
g602
sg603
F3.5074034200319404
sg604
F-1.5707963267948966
sg605
I00
sg606
I01
sg607
(dp931
sg440
I01
sg609
(dp932
sg611
F0.87648955979343246
sg612
I0
sg613
F0.46133364233668739
sg614
(dp933
g599
g868
sg616
I80
sg617
g872
sg626
I0
sg627
F0.080000000000000002
sg628
F2.5
sg629
I45
sg630
g881
sg632
I0
sg633
I80
sg634
I90
sg429
I20
sg635
I50
sg636
I230
sg637
g882
sg640
I200
sg641
I4
ssg642
I2
sg643
I00
sg644
I0
sg645
g433
sg646
Nsg647
(lp934
I0
aI0
asg649
g489
sg296
(lp935
sg284
I1
sg651
I0
sg652
I01
sg653
(lp936
I278
aI113
asg290
I5
sg655
g380
sg656
I2
sg657
I19
sg658
I0
sg659
g895
sbag236
(g237
g238
Ntp937
Rp938
(dp939
g242
Nsg243
I0
sg244
F1.6610472216474168
sg245
(iCode.Units.Buffs
BuffStruct
p940
(dp941
g248
g938
sg245
(lp942
sbsg250
(lp943
F5463.1055617774728
aF2398.0610138215047
asg252
I0
sg253
I0
sg254
F0.40000000000000002
sg232
(lp944
F5463.1055617774728
aF2398.0610138215047
asg256
(lp945
(iCode.Units.Abilities
EnemyProjectileShotAbil
p946
(dp947
g260
I3
sg261
I00
sg262
S'Slash'
p948
sg264
(dp949
S'damageType'
p950
(lp951
g74
asS'pic'
p952
(lp953
g948
asS'damage'
p954
(lp955
g82
asS'range'
p956
(lp957
S'50'
p958
asS'cooldown'
p959
(lp960
S'80'
p961
asS'speed'
p962
(lp963
g282
assg283
I00
sg284
I0
sg285
I01
sg286
(lp964
sg288
I30
sg289
F2.0
sg290
F50.0
sg291
(lp965
I0
aI80
asg293
g938
sg294
I1
sg295
g938
sg296
(lp966
I2
asg298
I00
sbasg380
I99
sg381
g382
sg383
I00
sg384
I00
sg385
(lp967
I5658
aI2430
asg387
F5.8951229815602666
sg388
(lp968
F-1.1903557541022158
aF-0.9127174692508877
asg390
(I258
I130
tp969
sg392
g562
sg125
I10
sg394
I0
sg395
I0
sg396
I5
sg397
F-2.6986968030758338
sg398
S'OrcArmour'
p970
sg400
(lp971
(I258
I130
tp972
a(I259
I130
tp973
a(I260
I130
tp974
a(I261
I130
tp975
a(I262
I130
tp976
a(I263
I130
tp977
a(I264
I130
tp978
a(I265
I130
tp979
a(I266
I130
tp980
a(I267
I130
tp981
a(I268
I130
tp982
a(I269
I130
tp983
a(I270
I130
tp984
a(I271
I130
tp985
a(I272
I130
tp986
a(I273
I130
tp987
a(I274
I130
tp988
a(I275
I130
tp989
a(I276
I130
tp990
a(I277
I130
tp991
a(I278
I130
tp992
a(I279
I130
tp993
a(I280
I130
tp994
a(I281
I129
tp995
a(I282
I128
tp996
a(I283
I127
tp997
a(I284
I126
tp998
a(I285
I125
tp999
asg127
I1
sg419
I0
sg420
I00
sg421
I20
sg422
(lp1000
I16
aI70
asg424
F-2.6986968030758338
sg425
I0
sg426
(lp1001
F2.8424124829508868
aF-35.066162662527468
asg428
F0.10000000000000009
sg429
F0.0
sg430
g433
sg435
I1165
sg599
S'OrcArmour'
p1002
sg601
g602
sg603
F3.5844885041037524
sg604
F0.0
sg605
I00
sg606
I01
sg607
(dp1003
sg440
I01
sg609
(dp1004
sg611
F0.7302659660721097
sg612
I0
sg613
F0.02253475639881275
sg614
(dp1005
g599
g1002
sg616
I150
sg617
(lp1006
(lp1007
g620
a(lp1008
S'-pic'
p1009
ag948
aS'-cooldown'
p1010
ag961
aS'-speed'
p1011
ag282
aS'-damage'
p1012
ag82
aS'-range'
p1013
ag958
aS'-damageType'
p1014
ag74
aaasg626
I0
sg627
F0.10000000000000001
sg628
F1.5
sg629
I45
sg630
(lp1015
F0.0
aF0.0
aF0.29999999999999999
aF-0.20000000000000001
aF0.0
aF-0.10000000000000001
aF-0.10000000000000001
aF0.0
aF0.0
aF-0.20000000000000001
asg632
I0
sg633
I80
sg634
I90
sg429
I20
sg635
I70
sg636
I230
sg637
(dp1016
g639
F0.0
ssg640
I200
sg641
I4
ssg642
I2
sg643
I00
sg644
I0
sg645
g433
sg646
Nsg647
(lp1017
I0
aI0
asg649
g489
sg296
(lp1018
sg284
I1
sg651
I0
sg652
I01
sg653
(lp1019
I258
aI130
asg290
I5
sg655
g380
sg656
I2
sg657
I8
sg658
I0
sg659
g946
sbag236
(g237
g238
Ntp1020
Rp1021
(dp1022
g242
Nsg243
I0
sg244
F2.1192022727159654
sg245
(iCode.Units.Buffs
BuffStruct
p1023
(dp1024
g248
g1021
sg245
(lp1025
sbsg250
(lp1026
F5402.854045392407
aF2296.1586402174012
asg252
F1.6000000000000001
sg253
I0
sg254
F0.40000000000000002
sg232
(lp1027
F5402.854045392407
aF2296.1586402174012
asg256
(lp1028
(iCode.Units.Abilities
EnemyProjectileShotAbil
p1029
(dp1030
g260
I3
sg261
I00
sg262
g948
sg264
(dp1031
S'damageType'
p1032
(lp1033
g74
asS'pic'
p1034
(lp1035
g948
asS'damage'
p1036
(lp1037
g82
asS'range'
p1038
(lp1039
g958
asS'cooldown'
p1040
(lp1041
g961
asS'speed'
p1042
(lp1043
g282
assg283
I00
sg284
I0
sg285
I01
sg286
(lp1044
sg288
I30
sg289
F2.0
sg290
F50.0
sg291
(lp1045
I0
aI80
asg293
g1021
sg294
I1
sg295
g1021
sg296
(lp1046
I2
asg298
I00
sbasg380
I99
sg381
g683
sg383
I00
sg384
I00
sg385
(lp1047
I5188
aI2861
asg387
F0.86605351383232732
sg388
(lp1048
F-0.47173966946116208
aF-0.58306233307998345
asg390
(I275
I97
tp1049
sg392
g562
sg125
I10
sg394
I0
sg395
I0
sg396
I3
sg397
F-2.709771036885253
sg398
g970
sg400
(lp1050
(I275
I97
tp1051
a(I275
I98
tp1052
a(I275
I99
tp1053
a(I275
I100
tp1054
a(I275
I101
tp1055
a(I275
I102
tp1056
a(I275
I103
tp1057
a(I275
I104
tp1058
a(I275
I105
tp1059
a(I275
I106
tp1060
a(I275
I107
tp1061
a(I275
I108
tp1062
a(I274
I109
tp1063
a(I273
I110
tp1064
asg127
I1
sg419
I0
sg420
I00
sg421
I20
sg422
(lp1065
I34
aI70
asg424
F-2.709771036885253
sg425
I0
sg426
(lp1066
F34.094789498054602
aF-29.305169142348539
asg428
F0.0
sg429
F0.0
sg430
g433
sg435
I1049
sg599
g1002
sg601
g602
sg603
F3.5734142702943332
sg604
F-1.5707963267948966
sg605
I00
sg606
I01
sg607
(dp1067
sg440
I01
sg609
(dp1068
sg611
F0.24413175658927411
sg612
I0
sg613
F0.37113560748291163
sg614
(dp1069
g599
g1002
sg616
I150
sg617
g1006
sg626
I0
sg627
F0.10000000000000001
sg628
F1.5
sg629
I45
sg630
g1015
sg632
I0
sg633
I80
sg634
I90
sg429
I20
sg635
I70
sg636
I230
sg637
g1016
sg640
I200
sg641
I4
ssg642
I2
sg643
I00
sg644
I0
sg645
g433
sg646
Nsg647
(lp1070
I0
aI0
asg649
g489
sg296
(lp1071
sg284
I1
sg651
I0
sg652
I01
sg653
(lp1072
I275
aI97
asg290
I5
sg655
g380
sg656
I2
sg657
I4
sg658
I0
sg659
g1029
sbag236
(g237
g238
Ntp1073
Rp1074
(dp1075
g242
Nsg243
I0
sg244
F6.1601902096834928
sg245
(iCode.Units.Buffs
BuffStruct
p1076
(dp1077
g248
g1074
sg245
(lp1078
sbsg250
(lp1079
F5305.1322198288135
aF2204.8638454231855
asg252
F1.6000000000000001
sg253
I0
sg254
F0.40000000000000002
sg232
(lp1080
F5305.1322198288135
aF2204.8638454231855
asg256
(lp1081
(iCode.Units.Abilities
EnemyProjectileShotAbil
p1082
(dp1083
g260
I3
sg261
I00
sg262
g948
sg264
(dp1084
S'damageType'
p1085
(lp1086
g74
asS'pic'
p1087
(lp1088
g948
asS'damage'
p1089
(lp1090
g82
asS'range'
p1091
(lp1092
g958
asS'cooldown'
p1093
(lp1094
g961
asS'speed'
p1095
(lp1096
g282
assg283
I00
sg284
I0
sg285
I01
sg286
(lp1097
sg288
I30
sg289
F2.0
sg290
F50.0
sg291
(lp1098
I0
aI80
asg293
g1074
sg294
I1
sg295
g1074
sg296
(lp1099
I2
asg298
I00
sbasg380
I99
sg381
g382
sg383
I00
sg384
I00
sg385
(lp1100
I5326
aI2827
asg387
F3.63456304224218
sg388
(lp1101
F0.29530651500110328
aF-0.68941573973757164
asg390
(I275
I121
tp1102
sg392
g562
sg125
I10
sg394
I0
sg395
I0
sg396
I9
sg397
F-0.92264630322930152
sg398
g970
sg400
(lp1103
(I275
I121
tp1104
a(I274
I121
tp1105
a(I273
I121
tp1106
a(I272
I121
tp1107
a(I271
I121
tp1108
a(I270
I121
tp1109
a(I269
I121
tp1110
a(I268
I121
tp1111
a(I267
I121
tp1112
a(I266
I121
tp1113
asg127
I1
sg419
I0
sg420
I00
sg421
I20
sg422
(lp1114
I46
aI70
asg424
F-0.92264630322930152
sg425
I0
sg426
(lp1115
F-7.1287185650165812
aF-41.165386798613113
asg428
F0.30000000000000004
sg429
F0.0
sg430
g433
sg435
I914
sg599
g1002
sg601
g602
sg603
F5.3605390039502847
sg604
F1.5707963267948966
sg605
I00
sg606
I01
sg607
(dp1116
sg440
I01
sg609
(dp1117
sg611
F0.19319534567148788
sg612
I0
sg613
F0.15397204431343325
sg614
(dp1118
g599
g1002
sg616
I150
sg617
g1006
sg626
I0
sg627
F0.10000000000000001
sg628
F1.5
sg629
I45
sg630
g1015
sg632
I0
sg641
I4
sg634
I90
sg429
I20
sg635
I70
sg636
I230
sg637
g1016
sg640
I200
sg633
I80
ssg642
I2
sg643
I00
sg644
I0
sg645
g433
sg646
Nsg647
(lp1119
I0
aI0
asg649
g489
sg296
(lp1120
sg284
I1
sg651
I0
sg652
I01
sg653
(lp1121
I275
aI121
asg290
I5
sg655
g380
sg656
I2
sg657
I26
sg658
I0
sg659
g1082
sbag236
(g237
g238
Ntp1122
Rp1123
(dp1124
g242
Nsg243
I0
sg244
F1.4174201720038755
sg245
(iCode.Units.Buffs
BuffStruct
p1125
(dp1126
g248
g1123
sg245
(lp1127
sbsg250
(lp1128
F5325.4656583325113
aF2274.5713122757447
asg252
F1.6000000000000001
sg253
I0
sg254
F0.40000000000000002
sg232
(lp1129
F5325.4656583325113
aF2274.5713122757447
asg256
(lp1130
(iCode.Units.Abilities
EnemyProjectileShotAbil
p1131
(dp1132
g260
I3
sg261
I00
sg262
S'Slash'
p1133
sg264
(dp1134
S'cooldown'
p1135
(lp1136
S'70'
p1137
asS'damageType'
p1138
(lp1139
g74
asS'range'
p1140
(lp1141
S'55'
p1142
asS'pic'
p1143
(lp1144
g1133
asS'speed'
p1145
(lp1146
g282
assg283
I00
sg284
I0
sg285
I01
sg286
(lp1147
sg288
I30
sg289
I5
sg290
F55.0
sg291
(lp1148
I0
aI70
asg293
g1123
sg294
I1
sg295
g1123
sg296
(lp1149
I2
asg298
I00
sba(iCode.Units.Abilities
EnemyFireball
p1150
(dp1151
g261
I00
sg327
(I265
I116
tp1152
sg262
S'BigSlash'
p1153
sg264
(dp1154
S'cooldown'
p1155
(lp1156
S'200'
p1157
asS'damageType'
p1158
(lp1159
g74
asS'pic'
p1160
(lp1161
g1153
assg283
I00
sg284
I0
sg285
I01
sg286
(lp1162
sg346
(lp1163
(iCode.Engine.Effects
FlashingSquare
p1164
(dp1165
g350
I0
sg351
I15
sg352
(lp1166
I264
aI116
asg127
I1
sba(iCode.Engine.Effects
FlashingSquare
p1167
(dp1168
g350
I0
sg351
I15
sg352
(lp1169
I264
aI115
asg127
I1
sba(iCode.Engine.Effects
FlashingSquare
p1170
(dp1171
g350
I0
sg351
I15
sg352
(lp1172
I266
aI116
asg127
I1
sba(iCode.Engine.Effects
FlashingSquare
p1173
(dp1174
g350
I0
sg351
I15
sg352
(lp1175
I266
aI115
asg127
I1
sba(iCode.Engine.Effects
FlashingSquare
p1176
(dp1177
g350
I0
sg351
I15
sg352
(lp1178
I265
aI115
asg127
I1
sba(iCode.Engine.Effects
FlashingSquare
p1179
(dp1180
g350
I0
sg351
I15
sg352
(lp1181
I266
aI117
asg127
I1
sba(iCode.Engine.Effects
FlashingSquare
p1182
(dp1183
g350
I0
sg351
I15
sg352
(lp1184
I264
aI117
asg127
I1
sba(iCode.Engine.Effects
FlashingSquare
p1185
(dp1186
g350
I0
sg351
I15
sg352
(lp1187
I265
aI117
asg127
I1
sba(iCode.Engine.Effects
FlashingSquare
p1188
(dp1189
g350
I0
sg351
I15
sg352
(lp1190
I265
aI116
asg127
I1
sbasg288
I60
sg289
I5
sg290
I80
sg291
(lp1191
I0
aI200
asg293
g1123
sg294
I1
sg295
g1123
sg296
(lp1192
I2
asg298
I00
sbasg380
I99
sg381
g683
sg383
I00
sg384
I00
sg385
(lp1193
I5596
aI2154
asg387
F4.85403265835334
sg388
(lp1194
F-1.1116509218078872
aF-0.57160495802929745
asg390
(I287
I133
tp1195
sg392
g562
sg125
I10
sg394
I0
sg395
I0
sg396
I4
sg397
F-2.6968541027338397
sg398
S'OrcSword'
p1196
sg400
(lp1197
(I287
I133
tp1198
a(I287
I132
tp1199
a(I287
I131
tp1200
a(I287
I130
tp1201
a(I287
I129
tp1202
a(I287
I128
tp1203
a(I287
I127
tp1204
a(I287
I126
tp1205
a(I287
I125
tp1206
a(I287
I124
tp1207
a(I287
I123
tp1208
a(I287
I122
tp1209
a(I287
I121
tp1210
a(I287
I120
tp1211
a(I287
I119
tp1212
a(I287
I118
tp1213
a(I287
I117
tp1214
a(I287
I116
tp1215
a(I287
I115
tp1216
a(I287
I114
tp1217
a(I287
I113
tp1218
a(I287
I112
tp1219
a(I287
I111
tp1220
a(I287
I110
tp1221
a(I287
I109
tp1222
a(I287
I108
tp1223
a(I287
I107
tp1224
a(I287
I106
tp1225
asg127
I1
sg419
I0
sg420
I00
sg421
I20
sg422
(lp1226
I27
aI70
asg424
F-2.6968541027338397
sg425
I0
sg426
(lp1227
F28.365944454924396
aF9.4160431834860425
asg428
F0.19999999999999996
sg429
F0.0
sg430
g433
sg435
I1014
sg599
S'OrcSword'
p1228
sg601
g602
sg603
F3.5863312044457465
sg604
F-1.5707963267948966
sg605
I00
sg606
I01
sg607
(dp1229
sg440
I01
sg609
(dp1230
sg611
F0.25253379215107452
sg612
I0
sg613
F0.91848745595452497
sg614
(dp1231
g599
g1228
sg863
S'F1MedEnemy'
p1232
sg616
I80
sg617
(lp1233
(lp1234
g620
a(lp1235
S'-pic'
p1236
ag1133
aS'-cooldown'
p1237
ag1137
aS'-speed'
p1238
ag282
aS'-range'
p1239
ag1142
aS'-damageType'
p1240
ag74
aaa(lp1241
cCode.Units.Abilities
EnemyFireball
p1242
a(lp1243
S'-pic'
p1244
ag1153
aS'-cooldown'
p1245
ag1157
aS'-damageType'
p1246
ag74
aaasg626
I0
sg627
F0.10000000000000001
sg628
F2.5
sg629
I45
sg630
(lp1247
F0.0
aF-0.20000000000000001
aF-0.20000000000000001
aF0.10000000000000001
aF0.0
aF-0.10000000000000001
aF-0.10000000000000001
aF0.0
aF0.0
aF-0.20000000000000001
asg632
I0
sg633
I130
sg634
I90
sg429
I20
sg635
I70
sg636
I230
sg637
(dp1248
g639
F0.0
ssg640
I200
sg641
I4
ssg642
I2
sg643
I00
sg644
I0
sg645
g433
sg646
Nsg647
(lp1249
I0
aI0
asg649
g489
sg296
(lp1250
sg284
I1
sg651
I0
sg652
I01
sg653
(lp1251
I287
aI133
asg290
I5
sg655
g380
sg656
I2
sg657
I13
sg658
I0
sg659
g1131
sbag236
(g237
g238
Ntp1252
Rp1253
(dp1254
g242
Nsg243
I0
sg244
F1.3419699891379682
sg245
(iCode.Units.Buffs
BuffStruct
p1255
(dp1256
g248
g1253
sg245
(lp1257
sbsg250
(lp1258
F5427.4067686482358
aF2388.0958825697226
asg252
F0.80000000000000004
sg253
I0
sg254
F0.40000000000000002
sg232
(lp1259
F5427.4067686482358
aF2388.0958825697226
asg256
(lp1260
(iCode.Units.Abilities
EnemyProjectileShotAbil
p1261
(dp1262
g260
I3
sg261
I00
sg262
g1133
sg264
(dp1263
S'cooldown'
p1264
(lp1265
g1137
asS'damageType'
p1266
(lp1267
g74
asS'range'
p1268
(lp1269
g1142
asS'pic'
p1270
(lp1271
g1133
asS'speed'
p1272
(lp1273
g282
assg283
I00
sg284
I0
sg285
I01
sg286
(lp1274
sg288
I30
sg289
I5
sg290
F55.0
sg291
(lp1275
I0
aI70
asg293
g1253
sg294
I1
sg295
g1253
sg296
(lp1276
I2
asg298
I00
sba(iCode.Units.Abilities
EnemyFireball
p1277
(dp1278
g261
I00
sg327
(I279
I121
tp1279
sg262
g1153
sg264
(dp1280
S'cooldown'
p1281
(lp1282
g1157
asS'damageType'
p1283
(lp1284
g74
asS'pic'
p1285
(lp1286
g1153
assg283
I00
sg284
I0
sg285
I01
sg286
(lp1287
sg346
(lp1288
(iCode.Engine.Effects
FlashingSquare
p1289
(dp1290
g350
I0
sg351
I15
sg352
(lp1291
I278
aI121
asg127
I1
sba(iCode.Engine.Effects
FlashingSquare
p1292
(dp1293
g350
I0
sg351
I15
sg352
(lp1294
I278
aI120
asg127
I1
sba(iCode.Engine.Effects
FlashingSquare
p1295
(dp1296
g350
I0
sg351
I15
sg352
(lp1297
I280
aI121
asg127
I1
sba(iCode.Engine.Effects
FlashingSquare
p1298
(dp1299
g350
I0
sg351
I15
sg352
(lp1300
I280
aI120
asg127
I1
sba(iCode.Engine.Effects
FlashingSquare
p1301
(dp1302
g350
I0
sg351
I15
sg352
(lp1303
I279
aI120
asg127
I1
sba(iCode.Engine.Effects
FlashingSquare
p1304
(dp1305
g350
I0
sg351
I15
sg352
(lp1306
I280
aI122
asg127
I1
sba(iCode.Engine.Effects
FlashingSquare
p1307
(dp1308
g350
I0
sg351
I15
sg352
(lp1309
I278
aI122
asg127
I1
sba(iCode.Engine.Effects
FlashingSquare
p1310
(dp1311
g350
I0
sg351
I15
sg352
(lp1312
I279
aI122
asg127
I1
sba(iCode.Engine.Effects
FlashingSquare
p1313
(dp1314
g350
I0
sg351
I15
sg352
(lp1315
I279
aI121
asg127
I1
sbasg288
I60
sg289
I5
sg290
I80
sg291
(lp1316
I0
aI200
asg293
g1253
sg294
I1
sg295
g1253
sg296
(lp1317
I2
asg298
I00
sbasg380
I99
sg381
g683
sg383
I00
sg384
I00
sg385
(lp1318
I5881
aI2211
asg387
F3.095198682622732
sg388
(lp1319
F-0.96014342679142439
aF-0.80039027979431421
asg390
(I295
I119
tp1320
sg392
g562
sg125
I10
sg394
I0
sg395
I0
sg396
I3
sg397
F-2.4599075068966396
sg398
g1196
sg400
(lp1321
(I295
I119
tp1322
a(I294
I119
tp1323
a(I293
I119
tp1324
a(I292
I119
tp1325
a(I291
I119
tp1326
a(I290
I119
tp1327
a(I289
I119
tp1328
a(I288
I119
tp1329
a(I287
I119
tp1330
a(I286
I119
tp1331
a(I285
I119
tp1332
a(I284
I119
tp1333
a(I283
I119
tp1334
a(I282
I119
tp1335
a(I281
I119
tp1336
a(I280
I119
tp1337
a(I279
I119
tp1338
a(I278
I120
tp1339
a(I277
I121
tp1340
asg127
I1
sg419
I0
sg420
I00
sg421
I20
sg422
(lp1341
I58
aI70
asg424
F-2.4599075068966396
sg425
I0
sg426
(lp1342
F-28.197552817546022
aF-24.840175827565737
asg428
F0.16000000000000014
sg429
F0.0
sg430
g433
sg435
I1177
sg599
g1228
sg601
g602
sg603
F3.8232778002829466
sg604
F3.1415926535897931
sg605
I00
sg606
I01
sg607
(dp1343
sg440
I01
sg609
(dp1344
sg611
F0.94802315956268313
sg612
I0
sg613
F0.7458543545131826
sg614
(dp1345
g599
g1228
sg616
I80
sg617
g1233
sg626
I0
sg627
F0.10000000000000001
sg628
F2.5
sg629
I45
sg630
g1247
sg632
I0
sg641
I4
sg634
I90
sg429
I20
sg635
I70
sg636
I230
sg637
g1248
sg640
I200
sg633
I130
ssg642
I2
sg643
I00
sg644
I0
sg645
g433
sg646
Nsg647
(lp1346
I0
aI0
asg649
g489
sg296
(lp1347
sg284
I1
sg651
I0
sg652
I01
sg653
(lp1348
I295
aI119
asg290
I5
sg655
g380
sg656
I2
sg657
I15
sg658
I0
sg659
g1277
sbag236
(g237
g238
Ntp1349
Rp1350
(dp1351
g242
Nsg243
I0
sg244
F4.9231489305661178
sg245
(iCode.Units.Buffs
BuffStruct
p1352
(dp1353
g248
g1350
sg245
(lp1354
sbsg250
(lp1355
F5434.3443273080702
aF2131.9862768548919
asg252
F1.6000000000000001
sg253
I0
sg254
F0.40000000000000002
sg232
(lp1356
F5434.3443273080702
aF2131.9862768548919
asg256
(lp1357
(iCode.Units.Abilities
EnemyProjectileShotAbil
p1358
(dp1359
g260
I2
sg261
I00
sg262
S'RedSlimeShot'
p1360
sg264
(dp1361
S'cooldown'
p1362
(lp1363
S'80'
p1364
asS'damageType'
p1365
(lp1366
g344
asS'pic'
p1367
(lp1368
g1360
asS'speed'
p1369
(lp1370
g82
asS'damage'
p1371
(lp1372
g82
assg283
I00
sg284
I0
sg285
I01
sg286
(lp1373
sg288
I30
sg289
F2.0
sg290
I80
sg291
(lp1374
I0
aI80
asg293
g1350
sg294
I5
sg295
g1350
sg296
(lp1375
I2
asg298
I00
sba(iCode.Units.Abilities
EnemyFireball
p1376
(dp1377
g261
I01
sg327
(I266
I105
tp1378
sg262
S'FireballExplosion'
p1379
sg264
(dp1380
S'cooldown'
p1381
(lp1382
S'300'
p1383
asS'isSpell'
p1384
(lp1385
S'True'
p1386
asS'pic'
p1387
(lp1388
g1379
asS'damage'
p1389
(lp1390
S'25'
p1391
asS'damageType'
p1392
(lp1393
g344
assg283
I00
sg284
I0
sg285
I01
sg286
(lp1394
sg346
(lp1395
(iCode.Engine.Effects
FlashingSquare
p1396
(dp1397
g350
I0
sg351
I15
sg352
(lp1398
I265
aI105
asg127
I1
sba(iCode.Engine.Effects
FlashingSquare
p1399
(dp1400
g350
I0
sg351
I15
sg352
(lp1401
I265
aI104
asg127
I1
sba(iCode.Engine.Effects
FlashingSquare
p1402
(dp1403
g350
I0
sg351
I15
sg352
(lp1404
I267
aI105
asg127
I1
sba(iCode.Engine.Effects
FlashingSquare
p1405
(dp1406
g350
I0
sg351
I15
sg352
(lp1407
I267
aI104
asg127
I1
sba(iCode.Engine.Effects
FlashingSquare
p1408
(dp1409
g350
I0
sg351
I15
sg352
(lp1410
I266
aI104
asg127
I1
sba(iCode.Engine.Effects
FlashingSquare
p1411
(dp1412
g350
I0
sg351
I15
sg352
(lp1413
I267
aI106
asg127
I1
sba(iCode.Engine.Effects
FlashingSquare
p1414
(dp1415
g350
I0
sg351
I15
sg352
(lp1416
I265
aI106
asg127
I1
sba(iCode.Engine.Effects
FlashingSquare
p1417
(dp1418
g350
I0
sg351
I15
sg352
(lp1419
I266
aI106
asg127
I1
sba(iCode.Engine.Effects
FlashingSquare
p1420
(dp1421
g350
I0
sg351
I15
sg352
(lp1422
I266
aI105
asg127
I1
sbasg288
I60
sg289
F25.0
sg290
I80
sg291
(lp1423
I0
aI300
asg293
g1350
sg294
I5
sg295
g1350
sg296
(lp1424
I2
asg298
I00
sbasg380
I99
sg381
g683
sg383
I00
sg384
I00
sg385
(lp1425
I5473
aI2013
asg387
F3.0880629350338054
sg388
(lp1426
F-0.25701718297526821
aF0.96640683340685118
asg390
(I281
I137
tp1427
sg392
g562
sg125
I10
sg394
I0
sg395
I0
sg396
I9
sg397
F-0.82169971269065067
sg398
S'FireElemental'
p1428
sg400
(lp1429
(I281
I137
tp1430
a(I281
I136
tp1431
a(I281
I135
tp1432
a(I281
I134
tp1433
a(I281
I133
tp1434
a(I281
I132
tp1435
a(I281
I131
tp1436
a(I281
I130
tp1437
a(I281
I129
tp1438
a(I281
I128
tp1439
a(I281
I127
tp1440
a(I281
I126
tp1441
a(I281
I125
tp1442
a(I281
I124
tp1443
a(I281
I123
tp1444
a(I281
I122
tp1445
a(I281
I121
tp1446
a(I281
I120
tp1447
a(I281
I119
tp1448
a(I281
I118
tp1449
a(I281
I117
tp1450
a(I281
I116
tp1451
a(I281
I115
tp1452
a(I281
I114
tp1453
a(I281
I113
tp1454
a(I282
I112
tp1455
a(I283
I111
tp1456
a(I284
I110
tp1457
a(I285
I109
tp1458
a(I286
I108
tp1459
a(I287
I107
tp1460
a(I288
I106
tp1461
a(I289
I105
tp1462
a(I290
I104
tp1463
asg127
I1
sg419
I0
sg420
I00
sg421
I40
sg422
(lp1464
I47
aI70
asg424
F-0.82169971269065067
sg425
I0
sg426
(lp1465
F-22.584580464204613
aF38.827240241216593
asg428
F2.2204460492503131e-16
sg429
F0.0
sg430
g433
sg435
I799
sg599
S'FireElemental'
p1466
sg601
g602
sg603
F5.461485594488936
sg604
F0.0
sg605
I00
sg606
I01
sg607
(dp1467
sg440
I01
sg609
(dp1468
sg611
F0.55072463420495343
sg612
I0
sg613
F0.032034334969817224
sg614
(dp1469
g599
g1466
sg616
I120
sg617
(lp1470
(lp1471
g620
a(lp1472
S'-pic'
p1473
ag1360
aS'-cooldown'
p1474
ag1364
aS'-speed'
p1475
ag82
aS'-damage'
p1476
ag82
aS'-damageType'
p1477
ag344
aaa(lp1478
g1242
a(lp1479
S'-pic'
p1480
ag1379
aS'-cooldown'
p1481
ag1383
aS'-damage'
p1482
ag1391
aS'-isSpell'
p1483
ag1386
aS'-damageType'
p1484
ag344
aaasg626
F0.20000000000000001
sg627
F0.14000000000000001
sg628
I2
sg629
I80
sg630
(lp1485
F0.0
aF0.0
aF0.0
aF0.10000000000000001
aF0.0
aF1.0
aF-1.0
aF0.0
aF-0.20000000000000001
aF0.40000000000000002
asg632
F0.20000000000000001
sg633
I130
sg634
I90
sg429
I40
sg635
I100
sg636
I230
sg637
(dp1486
g639
F0.0
ssg640
I200
sg641
I5
ssg642
I2
sg643
I00
sg644
I0
sg645
g433
sg646
Nsg647
(lp1487
I0
aI0
asg649
g489
sg296
(lp1488
I2
asg284
I1
sg651
I0
sg652
I01
sg653
(lp1489
I281
aI137
asg290
I5
sg655
g380
sg656
I2
sg657
I6
sg658
I0
sg659
g1358
sbag236
(g237
g238
Ntp1490
Rp1491
(dp1492
g242
Nsg243
I0
sg244
F4.7123889803846897
sg245
(iCode.Units.Buffs
BuffStruct
p1493
(dp1494
g248
g1491
sg245
(lp1495
sbsg250
(lp1496
F5394.4362958649826
aF2220.3480912697355
asg252
F1.6000000000000001
sg253
I0
sg254
F0.40000000000000002
sg232
(lp1497
F5394.4362958649826
aF2220.3480912697355
asg256
(lp1498
(iCode.Units.Abilities
EnemyProjectileShotAbil
p1499
(dp1500
g260
I2
sg261
I00
sg262
g1360
sg264
(dp1501
S'cooldown'
p1502
(lp1503
g1364
asS'damageType'
p1504
(lp1505
g344
asS'pic'
p1506
(lp1507
g1360
asS'speed'
p1508
(lp1509
g82
asS'damage'
p1510
(lp1511
g82
assg283
I00
sg284
I0
sg285
I01
sg286
(lp1512
sg288
I30
sg289
F2.0
sg290
I80
sg291
(lp1513
I0
aI80
asg293
g1491
sg294
I5
sg295
g1491
sg296
(lp1514
I2
asg298
I00
sba(iCode.Units.Abilities
EnemyFireball
p1515
(dp1516
g261
I01
sg327
(I268
I111
tp1517
sg262
g1379
sg264
(dp1518
S'cooldown'
p1519
(lp1520
g1383
asS'isSpell'
p1521
(lp1522
g1386
asS'pic'
p1523
(lp1524
g1379
asS'damage'
p1525
(lp1526
g1391
asS'damageType'
p1527
(lp1528
g344
assg283
I00
sg284
I0
sg285
I01
sg286
(lp1529
sg346
(lp1530
(iCode.Engine.Effects
FlashingSquare
p1531
(dp1532
g350
I0
sg351
I15
sg352
(lp1533
I267
aI111
asg127
I1
sba(iCode.Engine.Effects
FlashingSquare
p1534
(dp1535
g350
I0
sg351
I15
sg352
(lp1536
I267
aI110
asg127
I1
sba(iCode.Engine.Effects
FlashingSquare
p1537
(dp1538
g350
I0
sg351
I15
sg352
(lp1539
I269
aI111
asg127
I1
sba(iCode.Engine.Effects
FlashingSquare
p1540
(dp1541
g350
I0
sg351
I15
sg352
(lp1542
I269
aI110
asg127
I1
sba(iCode.Engine.Effects
FlashingSquare
p1543
(dp1544
g350
I0
sg351
I15
sg352
(lp1545
I268
aI110
asg127
I1
sba(iCode.Engine.Effects
FlashingSquare
p1546
(dp1547
g350
I0
sg351
I15
sg352
(lp1548
I269
aI112
asg127
I1
sba(iCode.Engine.Effects
FlashingSquare
p1549
(dp1550
g350
I0
sg351
I15
sg352
(lp1551
I267
aI112
asg127
I1
sba(iCode.Engine.Effects
FlashingSquare
p1552
(dp1553
g350
I0
sg351
I15
sg352
(lp1554
I268
aI112
asg127
I1
sba(iCode.Engine.Effects
FlashingSquare
p1555
(dp1556
g350
I0
sg351
I15
sg352
(lp1557
I268
aI111
asg127
I1
sbasg288
I60
sg289
F25.0
sg290
I80
sg291
(lp1558
I0
aI300
asg293
g1491
sg294
I5
sg295
g1491
sg296
(lp1559
I2
asg298
I00
sbasg380
I99
sg381
g382
sg383
I00
sg384
I00
sg385
(lp1560
I5885
aI2584
asg387
F4.2054892314005974
sg388
(lp1561
F0.65431480633713746
aF0.75622227830710875
asg390
(I273
I98
tp1562
sg392
g562
sg125
I10
sg394
I0
sg395
I0
sg396
I4
sg397
F0.26888620614846553
sg398
g1428
sg400
(lp1563
(I273
I98
tp1564
a(I273
I99
tp1565
a(I273
I100
tp1566
a(I273
I101
tp1567
a(I273
I102
tp1568
a(I273
I103
tp1569
a(I273
I104
tp1570
a(I273
I105
tp1571
a(I273
I106
tp1572
a(I273
I107
tp1573
a(I273
I108
tp1574
a(I274
I109
tp1575
a(I275
I110
tp1576
a(I276
I111
tp1577
a(I277
I112
tp1578
a(I278
I113
tp1579
asg127
I1
sg419
I0
sg420
I00
sg421
I40
sg422
(lp1580
I47
aI70
asg424
F0.26888620614846553
sg425
I0
sg426
(lp1581
F-0.92435117450223669
aF60.98488082625439
asg428
F1.6000000000000005
sg429
F0.0
sg430
g433
sg435
I634
sg599
g1466
sg601
g602
sg603
F0.26888620614846553
sg604
I0
sg605
I00
sg606
I01
sg607
(dp1582
sg440
I01
sg609
(dp1583
sg611
F0.022865046444668691
sg612
I0
sg613
F0.1474689750445366
sg614
(dp1584
g599
g1466
sg616
I120
sg617
g1470
sg626
F0.20000000000000001
sg627
F0.14000000000000001
sg628
I2
sg629
I80
sg630
g1485
sg632
F0.20000000000000001
sg633
I130
sg634
I90
sg429
I40
sg635
I100
sg636
I230
sg637
g1486
sg640
I200
sg641
I5
ssg642
I2
sg643
I00
sg644
I0
sg645
g433
sg646
Nsg647
(lp1585
I0
aI0
asg649
g489
sg296
(lp1586
sg284
I1
sg651
I0
sg652
I01
sg653
(lp1587
I273
aI98
asg290
I5
sg655
g380
sg656
I2
sg657
I40
sg658
I0
sg659
g1515
sbag236
(g237
g238
Ntp1588
Rp1589
(dp1590
g242
Nsg243
I0
sg244
F4.7123889803846897
sg245
(iCode.Units.Buffs
BuffStruct
p1591
(dp1592
g248
g1589
sg245
(lp1593
sbsg250
(lp1594
F5450.5186170031384
aF2251.4033946253439
asg252
F0.80000000000000004
sg253
I0
sg254
F0.40000000000000002
sg232
(lp1595
F5450.5186170031384
aF2251.4033946253439
asg256
(lp1596
(iCode.Units.Abilities
EnemyProjectileShotAbil
p1597
(dp1598
g260
I2
sg261
I00
sg262
g1360
sg264
(dp1599
S'cooldown'
p1600
(lp1601
g1364
asS'damageType'
p1602
(lp1603
g344
asS'pic'
p1604
(lp1605
g1360
asS'speed'
p1606
(lp1607
g82
asS'damage'
p1608
(lp1609
g82
assg283
I00
sg284
I0
sg285
I01
sg286
(lp1610
sg288
I30
sg289
F2.0
sg290
I80
sg291
(lp1611
I0
aI80
asg293
g1589
sg294
I5
sg295
g1589
sg296
(lp1612
I2
asg298
I00
sba(iCode.Units.Abilities
EnemyFireball
p1613
(dp1614
g261
I01
sg327
(I273
I112
tp1615
sg262
g1379
sg264
(dp1616
S'cooldown'
p1617
(lp1618
g1383
asS'isSpell'
p1619
(lp1620
g1386
asS'pic'
p1621
(lp1622
g1379
asS'damage'
p1623
(lp1624
g1391
asS'damageType'
p1625
(lp1626
g344
assg283
I00
sg284
I0
sg285
I01
sg286
(lp1627
sg346
(lp1628
(iCode.Engine.Effects
FlashingSquare
p1629
(dp1630
g350
I0
sg351
I15
sg352
(lp1631
I272
aI112
asg127
I1
sba(iCode.Engine.Effects
FlashingSquare
p1632
(dp1633
g350
I0
sg351
I15
sg352
(lp1634
I272
aI111
asg127
I1
sba(iCode.Engine.Effects
FlashingSquare
p1635
(dp1636
g350
I0
sg351
I15
sg352
(lp1637
I274
aI112
asg127
I1
sba(iCode.Engine.Effects
FlashingSquare
p1638
(dp1639
g350
I0
sg351
I15
sg352
(lp1640
I274
aI111
asg127
I1
sba(iCode.Engine.Effects
FlashingSquare
p1641
(dp1642
g350
I0
sg351
I15
sg352
(lp1643
I273
aI111
asg127
I1
sba(iCode.Engine.Effects
FlashingSquare
p1644
(dp1645
g350
I0
sg351
I15
sg352
(lp1646
I274
aI113
asg127
I1
sba(iCode.Engine.Effects
FlashingSquare
p1647
(dp1648
g350
I0
sg351
I15
sg352
(lp1649
I272
aI113
asg127
I1
sba(iCode.Engine.Effects
FlashingSquare
p1650
(dp1651
g350
I0
sg351
I15
sg352
(lp1652
I273
aI113
asg127
I1
sba(iCode.Engine.Effects
FlashingSquare
p1653
(dp1654
g350
I0
sg351
I15
sg352
(lp1655
I273
aI112
asg127
I1
sbasg288
I60
sg289
F25.0
sg290
I80
sg291
(lp1656
I0
aI300
asg293
g1589
sg294
I5
sg295
g1589
sg296
(lp1657
I2
asg298
I00
sbasg380
I99
sg381
g382
sg383
I00
sg384
I00
sg385
(lp1658
I6046
aI2455
asg387
F5.9506466837375438
sg388
(lp1659
F-0.73058252581113681
aF-0.68282440859961913
asg390
(I265
I117
tp1660
sg392
g562
sg125
I10
sg394
I0
sg395
I0
sg396
I8
sg397
F-2.8166824791931981
sg398
g1428
sg400
(lp1661
(I265
I117
tp1662
a(I266
I117
tp1663
a(I267
I117
tp1664
a(I268
I117
tp1665
a(I269
I117
tp1666
a(I270
I117
tp1667
a(I271
I117
tp1668
a(I272
I117
tp1669
a(I273
I117
tp1670
a(I274
I117
tp1671
a(I275
I117
tp1672
a(I276
I117
tp1673
a(I277
I117
tp1674
a(I278
I117
tp1675
a(I279
I117
tp1676
a(I280
I117
tp1677
a(I281
I117
tp1678
a(I282
I117
tp1679
a(I283
I117
tp1680
a(I284
I117
tp1681
asg127
I1
sg419
I0
sg420
I00
sg421
I40
sg422
(lp1682
I13
aI70
asg424
F-2.8166824791931981
sg425
I0
sg426
(lp1683
F35.916411441557123
aF-37.013705203667442
asg428
F0.64000000000000024
sg429
F0.0
sg430
g433
sg435
I522
sg599
g1466
sg601
g602
sg603
F3.4665028279863881
sg604
I0
sg605
I00
sg606
I01
sg607
(dp1684
sg440
I01
sg609
(dp1685
sg611
F0.5281304833626298
sg612
I0
sg613
F0.98370416417199402
sg614
(dp1686
g599
g1466
sg616
I120
sg617
g1470
sg626
F0.20000000000000001
sg627
F0.14000000000000001
sg628
I2
sg629
I80
sg630
g1485
sg632
F0.20000000000000001
sg633
I130
sg634
I90
sg429
I40
sg635
I100
sg636
I230
sg637
g1486
sg640
I200
sg641
I5
ssg642
I2
sg643
I00
sg644
I0
sg645
g433
sg646
Nsg647
(lp1687
I0
aI0
asg649
g489
sg296
(lp1688
sg284
I1
sg651
I0
sg652
I01
sg653
(lp1689
I265
aI117
asg290
I5
sg655
g380
sg656
I2
sg657
I38
sg658
I0
sg659
g1597
sbag236
(g237
g238
Ntp1690
Rp1691
(dp1692
g242
Nsg243
I0
sg244
F5.3213237571263914
sg245
(iCode.Units.Buffs
BuffStruct
p1693
(dp1694
g248
g1691
sg245
(lp1695
sbsg250
(lp1696
F5645.9337531873998
aF2465.002009452639
asg252
I0
sg253
I0
sg254
F0.40000000000000002
sg232
(lp1697
F5645.9337531873998
aF2465.002009452639
asg256
(lp1698
(iCode.Units.Abilities
EnemyProjectileShotAbil
p1699
(dp1700
g260
I3
sg261
I00
sg262
g752
sg264
(dp1701
S'damageType'
p1702
(lp1703
g74
asS'pic'
p1704
(lp1705
g752
asS'damage'
p1706
(lp1707
g74
asS'range'
p1708
(lp1709
g762
asS'cooldown'
p1710
(lp1711
g765
asS'speed'
p1712
(lp1713
g282
assg283
I00
sg284
I0
sg285
I01
sg286
(lp1714
sg288
I30
sg289
F1.0
sg290
F55.0
sg291
(lp1715
I0
aI70
asg293
g1691
sg294
I1
sg295
g1691
sg296
(lp1716
I2
asg298
I00
sbasg380
I99
sg381
g683
sg383
I00
sg384
I00
sg385
(lp1717
I5786
aI2267
asg387
F2.1990439063700773
sg388
(lp1718
F1.0333701790507885
aF0.70331079406514263
asg390
(I285
I131
tp1719
sg392
g562
sg125
I10
sg394
I0
sg395
I0
sg396
I10
sg397
F1.4035933791704676
sg398
S'Orc'
p1720
sg400
(lp1721
(I285
I131
tp1722
a(I285
I130
tp1723
a(I285
I129
tp1724
a(I284
I128
tp1725
a(I283
I127
tp1726
a(I282
I126
tp1727
a(I281
I125
tp1728
a(I280
I124
tp1729
a(I279
I123
tp1730
a(I278
I122
tp1731
a(I277
I121
tp1732
a(I276
I120
tp1733
a(I275
I119
tp1734
a(I274
I118
tp1735
a(I273
I117
tp1736
a(I272
I116
tp1737
a(I271
I115
tp1738
a(I270
I114
tp1739
a(I269
I113
tp1740
a(I268
I112
tp1741
asg127
I1
sg419
I0
sg420
I00
sg421
I20
sg422
(lp1742
I61
aI70
asg424
F1.4035933791704676
sg425
I0
sg426
(lp1743
F29.18597574106527
aF-4.5043090077321253
asg428
F0.19999999999999996
sg429
F0.0
sg430
g433
sg435
I1350
sg599
g868
sg601
g602
sg603
F1.315012811196854
sg604
F3.1415926535897931
sg605
I00
sg606
I01
sg607
(dp1744
sg440
I01
sg609
(dp1745
sg611
F0.34240921688783588
sg612
I0
sg613
F0.320255716305063
sg614
(dp1746
g599
g868
sg616
I80
sg617
g872
sg626
I0
sg627
F0.080000000000000002
sg628
F2.5
sg629
I45
sg630
g881
sg632
I0
sg633
I80
sg634
I90
sg429
I20
sg635
I50
sg636
I230
sg637
g882
sg640
I200
sg641
I4
ssg642
I2
sg643
I00
sg644
I0
sg645
g433
sg646
Nsg647
(lp1747
I0
aI0
asg649
g489
sg296
(lp1748
sg284
I1
sg651
I0
sg652
I01
sg653
(lp1749
I285
aI131
asg290
I5
sg655
g380
sg656
I2
sg657
I10
sg658
I0
sg659
g1699
sbag236
(g237
g238
Ntp1750
Rp1751
(dp1752
g242
Nsg243
I0
sg244
F4.7123889803846897
sg245
(iCode.Units.Buffs
BuffStruct
p1753
(dp1754
g248
g1751
sg245
(lp1755
sbsg250
(lp1756
F5445.5518452477463
aF2401.0561419273258
asg252
F1.2000000000000002
sg253
I0
sg254
F0.40000000000000002
sg232
(lp1757
F5445.5518452477463
aF2401.0561419273258
asg256
(lp1758
(iCode.Units.Abilities
EnemyProjectileShotAbil
p1759
(dp1760
g260
I3
sg261
I00
sg262
g752
sg264
(dp1761
S'damageType'
p1762
(lp1763
g74
asS'pic'
p1764
(lp1765
g752
asS'damage'
p1766
(lp1767
g74
asS'range'
p1768
(lp1769
g762
asS'cooldown'
p1770
(lp1771
g765
asS'speed'
p1772
(lp1773
g282
assg283
I00
sg284
I0
sg285
I01
sg286
(lp1774
sg288
I30
sg289
F1.0
sg290
F55.0
sg291
(lp1775
I0
aI70
asg293
g1751
sg294
I1
sg295
g1751
sg296
(lp1776
I2
asg298
I00
sbasg380
I99
sg381
g382
sg383
I00
sg384
I00
sg385
(lp1777
I5211
aI2744
asg387
F-0.22375615097509266
sg388
(lp1778
F-1.1330714551034182
aF-0.52787221714144283
asg390
(I279
I115
tp1779
sg392
g562
sg125
I10
sg394
I0
sg395
I0
sg396
I6
sg397
F-2.52030983126537
sg398
g1720
sg400
(lp1780
(I279
I115
tp1781
a(I279
I116
tp1782
a(I279
I117
tp1783
a(I279
I118
tp1784
a(I278
I119
tp1785
a(I277
I120
tp1786
a(I276
I121
tp1787
a(I275
I122
tp1788
a(I274
I123
tp1789
a(I273
I124
tp1790
a(I272
I125
tp1791
a(I271
I126
tp1792
a(I270
I127
tp1793
a(I269
I128
tp1794
a(I268
I129
tp1795
a(I267
I130
tp1796
a(I266
I131
tp1797
a(I265
I132
tp1798
a(I264
I133
tp1799
a(I263
I134
tp1800
a(I262
I135
tp1801
a(I261
I136
tp1802
asg127
I1
sg419
I0
sg420
I00
sg421
I20
sg422
(lp1803
I15
aI70
asg424
F-2.52030983126537
sg425
I0
sg426
(lp1804
F22.949912835418868
aF33.207844324151921
asg428
F0.52000000000000002
sg429
F0.0
sg430
g433
sg435
I1173
sg599
g868
sg601
g602
sg603
F3.7628754759142162
sg604
I0
sg605
I00
sg606
I01
sg607
(dp1805
sg440
I01
sg609
(dp1806
sg611
F0.77585072105280606
sg612
I0
sg613
F0.88083563184411828
sg614
(dp1807
g599
g868
sg616
I80
sg617
g872
sg626
I0
sg627
F0.080000000000000002
sg628
F2.5
sg629
I45
sg630
g881
sg632
I0
sg633
I80
sg634
I90
sg429
I20
sg635
I50
sg636
I230
sg637
g882
sg640
I200
sg641
I4
ssg642
I2
sg643
I00
sg644
I0
sg645
g433
sg646
Nsg647
(lp1808
I0
aI0
asg649
g489
sg296
(lp1809
sg284
I1
sg651
I0
sg652
I01
sg653
(lp1810
I279
aI115
asg290
I5
sg655
g380
sg656
I2
sg657
I31
sg658
I0
sg659
g1759
sbag804
ag236
(g237
g238
Ntp1811
Rp1812
(dp1813
g242
Nsg243
I0
sg244
F4.7123889803846897
sg245
(iCode.Units.Buffs
BuffStruct
p1814
(dp1815
g248
g1812
sg245
(lp1816
sbsg250
(lp1817
F5366.4896519958274
aF2170.5020677509578
asg252
F1.6000000000000001
sg253
I0
sg254
F0.40000000000000002
sg232
(lp1818
F5366.4896519958274
aF2170.5020677509578
asg256
(lp1819
(iCode.Units.Abilities
EnemyProjectileShotAbil
p1820
(dp1821
g260
I3
sg261
I00
sg262
g544
sg264
(dp1822
S'cooldown'
p1823
(lp1824
g548
asS'damageType'
p1825
(lp1826
g551
asS'pic'
p1827
(lp1828
g544
asS'speed'
p1829
(lp1830
g282
assg283
I00
sg284
I0
sg285
I01
sg286
(lp1831
sg288
I30
sg289
I5
sg290
I80
sg291
(lp1832
I0
aI40
asg293
g1812
sg294
I8
sg295
g1812
sg296
(lp1833
I2
asg298
I00
sbasg380
I99
sg381
g382
sg383
I00
sg384
I00
sg385
(lp1834
I5849
aI2784
asg387
F2.8204060312985169
sg388
(lp1835
F-0.41736157840486976
aF0.90874050909563597
asg390
(I286
I119
tp1836
sg392
g562
sg125
I10
sg394
I0
sg395
I0
sg396
I6
sg397
F2.62020737887197
sg398
g563
sg400
(lp1837
(I286
I119
tp1838
a(I286
I120
tp1839
asg127
I1
sg419
I0
sg420
I00
sg421
I20
sg422
(lp1840
I25
aI70
asg424
F2.62020737887197
sg425
I0
sg426
(lp1841
F10.438577283946076
aF70.191854244307834
asg428
F0.60999999999999976
sg429
F0.0
sg430
g433
sg435
I704
sg599
g600
sg601
g602
sg603
F2.62020737887197
sg604
I0
sg605
I00
sg606
I01
sg607
(dp1842
sg440
I01
sg609
(dp1843
sg611
F0.90005290670507554
sg612
I0
sg613
F0.30877366631621961
sg614
(dp1844
g599
g600
sg616
I100
sg617
g618
sg626
I0
sg627
F0.080000000000000002
sg628
I2
sg629
I80
sg630
g631
sg632
I0
sg633
I100
sg634
I90
sg429
I20
sg635
I50
sg636
I230
sg637
g638
sg640
I200
sg641
I3
ssg642
I2
sg643
I00
sg644
I0
sg645
g433
sg646
Nsg647
(lp1845
I0
aI0
asg649
g489
sg296
(lp1846
sg284
I1
sg651
I0
sg652
I01
sg653
(lp1847
I286
aI119
asg290
I5
sg655
g380
sg656
I2
sg657
I39
sg658
I0
sg659
g1820
sbag236
(g237
g238
Ntp1848
Rp1849
(dp1850
g242
Nsg243
I0
sg244
F4.7123889803846897
sg245
(iCode.Units.Buffs
BuffStruct
p1851
(dp1852
g248
g1849
sg245
(lp1853
sbsg250
(lp1854
F5312.3326771327747
aF2146.2344969937753
asg252
F0.40000000000000002
sg253
I0
sg254
F0.40000000000000002
sg232
(lp1855
F5312.3326771327747
aF2146.2344969937753
asg256
(lp1856
(iCode.Units.Abilities
EnemyProjectileShotAbil
p1857
(dp1858
g260
I3
sg261
I00
sg262
g544
sg264
(dp1859
S'cooldown'
p1860
(lp1861
g548
asS'damageType'
p1862
(lp1863
g551
asS'pic'
p1864
(lp1865
g544
asS'speed'
p1866
(lp1867
g282
assg283
I00
sg284
I0
sg285
I01
sg286
(lp1868
sg288
I30
sg289
I5
sg290
I80
sg291
(lp1869
I0
aI40
asg293
g1849
sg294
I8
sg295
g1849
sg296
(lp1870
I2
asg298
I00
sbasg380
I99
sg381
g382
sg383
I00
sg384
I00
sg385
(lp1871
I5219
aI2690
asg387
F5.0366441467807643
sg388
(lp1872
F0.23479124192980083
aF-0.97204581821695102
asg390
(I286
I108
tp1873
sg392
g562
sg125
I10
sg394
I0
sg395
I0
sg396
I5
sg397
F-0.73019362636989738
sg398
g563
sg400
(lp1874
(I286
I108
tp1875
a(I285
I109
tp1876
a(I284
I110
tp1877
a(I283
I111
tp1878
a(I282
I112
tp1879
a(I281
I113
tp1880
a(I280
I114
tp1881
a(I279
I115
tp1882
a(I278
I116
tp1883
a(I277
I117
tp1884
a(I276
I118
tp1885
a(I275
I119
tp1886
a(I274
I120
tp1887
a(I273
I121
tp1888
a(I272
I122
tp1889
a(I271
I123
tp1890
a(I270
I124
tp1891
a(I269
I125
tp1892
asg127
I1
sg419
I0
sg420
I00
sg421
I20
sg422
(lp1893
I56
aI70
asg424
F-0.73019362636989738
sg425
I0
sg426
(lp1894
F-3.8914734012120942
aF-74.484923000828942
asg428
F0.60999999999999976
sg429
F0.0
sg430
g433
sg435
I926
sg599
g600
sg601
g602
sg603
F5.5529916808096891
sg604
I0
sg605
I00
sg606
I01
sg607
(dp1895
sg440
I01
sg609
(dp1896
sg611
F0.52376130385201347
sg612
I0
sg613
F0.47642807386466834
sg614
(dp1897
g599
g600
sg616
I100
sg617
g618
sg626
I0
sg627
F0.080000000000000002
sg628
I2
sg629
I80
sg630
g631
sg632
I0
sg633
I100
sg634
I90
sg429
I20
sg635
I50
sg636
I230
sg637
g638
sg640
I200
sg641
I3
ssg642
I2
sg643
I00
sg644
I0
sg645
g433
sg646
Nsg647
(lp1898
I0
aI0
asg649
g489
sg296
(lp1899
sg284
I1
sg651
I0
sg652
I01
sg653
(lp1900
I286
aI108
asg290
I5
sg655
g380
sg656
I2
sg657
I33
sg658
I0
sg659
g1857
sbag236
(g237
g238
Ntp1901
Rp1902
(dp1903
g242
Nsg243
I0
sg244
F4.7123889803846897
sg245
(iCode.Units.Buffs
BuffStruct
p1904
(dp1905
g248
g1902
sg245
(lp1906
sbsg250
(lp1907
F5361.690657418435
aF2186.0944714042425
asg252
F0.40000000000000002
sg253
I0
sg254
F0.40000000000000002
sg232
(lp1908
F5361.690657418435
aF2186.0944714042425
asg256
(lp1909
(iCode.Units.Abilities
EnemyProjectileShotAbil
p1910
(dp1911
g260
I2
sg261
I00
sg262
g1360
sg264
(dp1912
S'cooldown'
p1913
(lp1914
g1364
asS'damageType'
p1915
(lp1916
g344
asS'pic'
p1917
(lp1918
g1360
asS'speed'
p1919
(lp1920
g82
asS'damage'
p1921
(lp1922
g82
assg283
I00
sg284
I0
sg285
I01
sg286
(lp1923
sg288
I30
sg289
F2.0
sg290
I80
sg291
(lp1924
I0
aI80
asg293
g1902
sg294
I5
sg295
g1902
sg296
(lp1925
I2
asg298
I00
sba(iCode.Units.Abilities
EnemyFireball
p1926
(dp1927
g261
I01
sg327
(I265
I105
tp1928
sg262
g1379
sg264
(dp1929
S'cooldown'
p1930
(lp1931
g1383
asS'isSpell'
p1932
(lp1933
g1386
asS'pic'
p1934
(lp1935
g1379
asS'damage'
p1936
(lp1937
g1391
asS'damageType'
p1938
(lp1939
g344
assg283
I00
sg284
I0
sg285
I01
sg286
(lp1940
sg346
(lp1941
(iCode.Engine.Effects
FlashingSquare
p1942
(dp1943
g350
I0
sg351
I15
sg352
(lp1944
I264
aI105
asg127
I1
sba(iCode.Engine.Effects
FlashingSquare
p1945
(dp1946
g350
I0
sg351
I15
sg352
(lp1947
I264
aI104
asg127
I1
sba(iCode.Engine.Effects
FlashingSquare
p1948
(dp1949
g350
I0
sg351
I15
sg352
(lp1950
I266
aI105
asg127
I1
sba(iCode.Engine.Effects
FlashingSquare
p1951
(dp1952
g350
I0
sg351
I15
sg352
(lp1953
I266
aI104
asg127
I1
sba(iCode.Engine.Effects
FlashingSquare
p1954
(dp1955
g350
I0
sg351
I15
sg352
(lp1956
I265
aI104
asg127
I1
sba(iCode.Engine.Effects
FlashingSquare
p1957
(dp1958
g350
I0
sg351
I15
sg352
(lp1959
I266
aI106
asg127
I1
sba(iCode.Engine.Effects
FlashingSquare
p1960
(dp1961
g350
I0
sg351
I15
sg352
(lp1962
I264
aI106
asg127
I1
sba(iCode.Engine.Effects
FlashingSquare
p1963
(dp1964
g350
I0
sg351
I15
sg352
(lp1965
I265
aI106
asg127
I1
sba(iCode.Engine.Effects
FlashingSquare
p1966
(dp1967
g350
I0
sg351
I15
sg352
(lp1968
I265
aI105
asg127
I1
sbasg288
I60
sg289
F25.0
sg290
I80
sg291
(lp1969
I0
aI300
asg293
g1902
sg294
I5
sg295
g1902
sg296
(lp1970
I2
asg298
I00
sbasg380
I99
sg381
g382
sg383
I00
sg384
I00
sg385
(lp1971
I5977
aI2048
asg387
F0.99608806197734123
sg388
(lp1972
F-0.24248943180816143
aF0.97015404728391208
asg390
(I271
I117
tp1973
sg392
g562
sg125
I10
sg394
I0
sg395
I0
sg396
I3
sg397
F1.1967652532299187
sg398
g1428
sg400
(lp1974
(I271
I117
tp1975
a(I272
I117
tp1976
a(I273
I117
tp1977
a(I274
I117
tp1978
a(I275
I117
tp1979
a(I276
I117
tp1980
a(I277
I117
tp1981
a(I278
I117
tp1982
a(I279
I117
tp1983
a(I280
I117
tp1984
a(I281
I117
tp1985
a(I282
I117
tp1986
a(I283
I117
tp1987
a(I284
I116
tp1988
a(I285
I115
tp1989
asg127
I1
sg419
I0
sg420
I00
sg421
I40
sg422
(lp1990
I28
aI70
asg424
F1.1967652532299187
sg425
I0
sg426
(lp1991
F-38.454779369163766
aF44.245935392308574
asg428
F0.12000000000000055
sg429
F0.0
sg430
g433
sg435
I676
sg599
g1466
sg601
g602
sg603
F1.1967652532299187
sg604
I0
sg605
I00
sg606
I01
sg607
(dp1992
sg440
I01
sg609
(dp1993
sg611
F0.89070686940430954
sg612
I0
sg613
F0.022492470527858299
sg614
(dp1994
g599
g1466
sg616
I120
sg617
g1470
sg626
F0.20000000000000001
sg627
F0.14000000000000001
sg628
I2
sg629
I80
sg630
g1485
sg632
F0.20000000000000001
sg633
I130
sg634
I90
sg429
I40
sg635
I100
sg636
I230
sg637
g1486
sg640
I200
sg641
I5
ssg642
I2
sg643
I00
sg644
I0
sg645
g433
sg646
Nsg647
(lp1995
I0
aI0
asg649
g489
sg296
(lp1996
sg284
I1
sg651
I0
sg652
I01
sg653
(lp1997
I271
aI117
asg290
I5
sg655
g380
sg656
I2
sg657
I38
sg658
I0
sg659
g1910
sbag236
(g237
g238
Ntp1998
Rp1999
(dp2000
g242
Nsg243
I0
sg244
F-1.5707963267948966
sg245
(iCode.Units.Buffs
BuffStruct
p2001
(dp2002
g248
g1999
sg245
(lp2003
sbsg250
(lp2004
F5198.9961423535769
aF2273.6718913629197
asg252
F1.2000000000000002
sg253
I0
sg254
F0.40000000000000002
sg232
(lp2005
F5198.9961423535769
aF2273.6718913629197
asg256
(lp2006
(iCode.Units.Abilities
EnemyProjectileShotAbil
p2007
(dp2008
g260
I2
sg261
I00
sg262
g1360
sg264
(dp2009
S'cooldown'
p2010
(lp2011
g1364
asS'damageType'
p2012
(lp2013
g344
asS'pic'
p2014
(lp2015
g1360
asS'speed'
p2016
(lp2017
g82
asS'damage'
p2018
(lp2019
g82
assg283
I00
sg284
I0
sg285
I01
sg286
(lp2020
sg288
I30
sg289
F2.0
sg290
I80
sg291
(lp2021
I0
aI80
asg293
g1999
sg294
I5
sg295
g1999
sg296
(lp2022
I2
asg298
I00
sba(iCode.Units.Abilities
EnemyFireball
p2023
(dp2024
g261
I01
sg327
(I266
I110
tp2025
sg262
g1379
sg264
(dp2026
S'cooldown'
p2027
(lp2028
g1383
asS'isSpell'
p2029
(lp2030
g1386
asS'pic'
p2031
(lp2032
g1379
asS'damage'
p2033
(lp2034
g1391
asS'damageType'
p2035
(lp2036
g344
assg283
I00
sg284
I0
sg285
I01
sg286
(lp2037
sg346
(lp2038
(iCode.Engine.Effects
FlashingSquare
p2039
(dp2040
g350
I0
sg351
I15
sg352
(lp2041
I265
aI110
asg127
I1
sba(iCode.Engine.Effects
FlashingSquare
p2042
(dp2043
g350
I0
sg351
I15
sg352
(lp2044
I265
aI109
asg127
I1
sba(iCode.Engine.Effects
FlashingSquare
p2045
(dp2046
g350
I0
sg351
I15
sg352
(lp2047
I267
aI110
asg127
I1
sba(iCode.Engine.Effects
FlashingSquare
p2048
(dp2049
g350
I0
sg351
I15
sg352
(lp2050
I267
aI109
asg127
I1
sba(iCode.Engine.Effects
FlashingSquare
p2051
(dp2052
g350
I0
sg351
I15
sg352
(lp2053
I266
aI109
asg127
I1
sba(iCode.Engine.Effects
FlashingSquare
p2054
(dp2055
g350
I0
sg351
I15
sg352
(lp2056
I267
aI111
asg127
I1
sba(iCode.Engine.Effects
FlashingSquare
p2057
(dp2058
g350
I0
sg351
I15
sg352
(lp2059
I265
aI111
asg127
I1
sba(iCode.Engine.Effects
FlashingSquare
p2060
(dp2061
g350
I0
sg351
I15
sg352
(lp2062
I266
aI111
asg127
I1
sba(iCode.Engine.Effects
FlashingSquare
p2063
(dp2064
g350
I0
sg351
I15
sg352
(lp2065
I266
aI110
asg127
I1
sbasg288
I60
sg289
F25.0
sg290
I80
sg291
(lp2066
I0
aI300
asg293
g1999
sg294
I5
sg295
g1999
sg296
(lp2067
I2
asg298
I00
sbasg380
I99
sg381
g683
sg383
I00
sg384
I00
sg385
(lp2068
I5902
aI2859
asg387
F3.9414962066508599
sg388
(lp2069
F-0.77507988734057554
aF0.63186325121826858
asg390
(I297
I115
tp2070
sg392
g562
sg125
I10
sg394
I0
sg395
I0
sg396
I6
sg397
F-1.8580632458318569
sg398
g1428
sg400
(lp2071
(I297
I115
tp2072
asg127
I1
sg419
I0
sg420
I00
sg421
I40
sg422
(lp2073
I55
aI70
asg424
F-1.8580632458318569
sg425
I0
sg426
(lp2074
F-8.6594034142576444
aF65.461689310266337
asg428
F0.88000000000000034
sg429
F0.0
sg430
g433
sg435
I288
sg599
g1466
sg601
g602
sg603
F4.4251220613477296
sg604
F-1.5707963267948966
sg605
I00
sg606
I01
sg607
(dp2075
sg440
I01
sg609
(dp2076
sg611
F0.30905411698745633
sg612
I0
sg613
F0.49033187495182795
sg614
(dp2077
g599
g1466
sg616
I120
sg617
g1470
sg626
F0.20000000000000001
sg627
F0.14000000000000001
sg628
I2
sg629
I80
sg630
g1485
sg632
F0.20000000000000001
sg633
I130
sg634
I90
sg429
I40
sg635
I100
sg636
I230
sg637
g1486
sg640
I200
sg641
I5
ssg642
I2
sg643
I00
sg644
I0
sg645
g433
sg646
Nsg647
(lp2078
I0
aI0
asg649
g489
sg296
(lp2079
I2
asg284
I1
sg651
I46
sg652
I01
sg653
(I5670
I2224
tp2080
sg290
I5
sg655
g380
sg656
I2
sg657
I11
sg658
I0
sg659
g2007
sbag236
(g237
g238
Ntp2081
Rp2082
(dp2083
g242
Nsg243
I0
sg244
F4.7123889803846897
sg245
(iCode.Units.Buffs
BuffStruct
p2084
(dp2085
g248
g2082
sg245
(lp2086
sbsg250
(lp2087
F5242.861276080389
aF2267.0742298065206
asg252
I0
sg253
I0
sg254
F0.40000000000000002
sg232
(lp2088
F5242.861276080389
aF2267.0742298065206
asg256
(lp2089
(iCode.Units.Abilities
EnemyProjectileShotAbil
p2090
(dp2091
g260
I2
sg261
I00
sg262
g1360
sg264
(dp2092
S'cooldown'
p2093
(lp2094
g1364
asS'damageType'
p2095
(lp2096
g344
asS'pic'
p2097
(lp2098
g1360
asS'speed'
p2099
(lp2100
g82
asS'damage'
p2101
(lp2102
g82
assg283
I00
sg284
I0
sg285
I01
sg286
(lp2103
sg288
I30
sg289
F2.0
sg290
I80
sg291
(lp2104
I0
aI80
asg293
g2082
sg294
I5
sg295
g2082
sg296
(lp2105
I2
asg298
I00
sba(iCode.Units.Abilities
EnemyFireball
p2106
(dp2107
g261
I01
sg327
(I273
I112
tp2108
sg262
g1379
sg264
(dp2109
S'cooldown'
p2110
(lp2111
g1383
asS'isSpell'
p2112
(lp2113
g1386
asS'pic'
p2114
(lp2115
g1379
asS'damage'
p2116
(lp2117
g1391
asS'damageType'
p2118
(lp2119
g344
assg283
I00
sg284
I0
sg285
I01
sg286
(lp2120
sg346
(lp2121
(iCode.Engine.Effects
FlashingSquare
p2122
(dp2123
g350
I0
sg351
I15
sg352
(lp2124
I272
aI112
asg127
I1
sba(iCode.Engine.Effects
FlashingSquare
p2125
(dp2126
g350
I0
sg351
I15
sg352
(lp2127
I272
aI111
asg127
I1
sba(iCode.Engine.Effects
FlashingSquare
p2128
(dp2129
g350
I0
sg351
I15
sg352
(lp2130
I274
aI112
asg127
I1
sba(iCode.Engine.Effects
FlashingSquare
p2131
(dp2132
g350
I0
sg351
I15
sg352
(lp2133
I274
aI111
asg127
I1
sba(iCode.Engine.Effects
FlashingSquare
p2134
(dp2135
g350
I0
sg351
I15
sg352
(lp2136
I273
aI111
asg127
I1
sba(iCode.Engine.Effects
FlashingSquare
p2137
(dp2138
g350
I0
sg351
I15
sg352
(lp2139
I274
aI113
asg127
I1
sba(iCode.Engine.Effects
FlashingSquare
p2140
(dp2141
g350
I0
sg351
I15
sg352
(lp2142
I272
aI113
asg127
I1
sba(iCode.Engine.Effects
FlashingSquare
p2143
(dp2144
g350
I0
sg351
I15
sg352
(lp2145
I273
aI113
asg127
I1
sba(iCode.Engine.Effects
FlashingSquare
p2146
(dp2147
g350
I0
sg351
I15
sg352
(lp2148
I273
aI112
asg127
I1
sbasg288
I60
sg289
F25.0
sg290
I80
sg291
(lp2149
I0
aI300
asg293
g2082
sg294
I5
sg295
g2082
sg296
(lp2150
I2
asg298
I00
sbasg380
I99
sg381
g382
sg383
I00
sg384
I00
sg385
(lp2151
I6074
aI2464
asg387
F1.5013531793112336
sg388
(lp2152
F-0.91801494802187023
aF-0.39654577946108938
asg390
(I261
I125
tp2153
sg392
g562
sg125
I10
sg394
I0
sg395
I0
sg396
I6
sg397
F-2.000835154001694
sg398
g1428
sg400
(lp2154
(I261
I125
tp2155
a(I262
I125
tp2156
a(I263
I125
tp2157
a(I264
I125
tp2158
a(I265
I125
tp2159
a(I266
I125
tp2160
a(I267
I125
tp2161
a(I268
I125
tp2162
a(I269
I125
tp2163
a(I270
I125
tp2164
a(I271
I125
tp2165
a(I272
I125
tp2166
a(I273
I125
tp2167
a(I274
I125
tp2168
a(I275
I125
tp2169
a(I276
I125
tp2170
a(I277
I125
tp2171
a(I278
I125
tp2172
a(I279
I125
tp2173
a(I280
I125
tp2174
a(I281
I125
tp2175
a(I282
I125
tp2176
a(I283
I125
tp2177
a(I284
I125
tp2178
a(I285
I125
tp2179
asg127
I1
sg419
I0
sg420
I00
sg421
I40
sg422
(lp2180
I65
aI70
asg424
F-2.000835154001694
sg425
I0
sg426
(lp2181
F-67.631516886472554
aF15.236906646284456
asg428
F0.12000000000000055
sg429
F0.0
sg430
g433
sg435
I385
sg599
g1466
sg601
g602
sg603
F4.2823501531778927
sg604
I0
sg605
I00
sg606
I01
sg607
(dp2182
sg440
I01
sg609
(dp2183
sg611
F0.62064808960792839
sg612
I0
sg613
F0.38205192032456181
sg614
(dp2184
g599
g1466
sg616
I120
sg617
g1470
sg626
F0.20000000000000001
sg627
F0.14000000000000001
sg628
I2
sg629
I80
sg630
g1485
sg632
F0.20000000000000001
sg633
I130
sg634
I90
sg429
I40
sg635
I100
sg636
I230
sg637
g1486
sg640
I200
sg641
I5
ssg642
I2
sg643
I00
sg644
I0
sg645
g433
sg646
Nsg647
(lp2185
I0
aI0
asg649
g489
sg296
(lp2186
I2
asg284
I1
sg651
I0
sg652
I01
sg653
(lp2187
I261
aI125
asg290
I5
sg655
g380
sg656
I2
sg657
I30
sg658
I0
sg659
g2090
sbag236
(g237
g238
Ntp2188
Rp2189
(dp2190
g242
Nsg243
I0
sg244
F2.6323848920990098
sg245
(iCode.Units.Buffs
BuffStruct
p2191
(dp2192
g248
g2189
sg245
(lp2193
sbsg250
(lp2194
F5850.0
aF2063.1200000000017
asg252
F1.3
sg253
I0
sg254
F0.10000000000000001
sg232
(lp2195
F5850.0
aF2061.9200000000019
asg256
(lp2196
(iCode.Units.Abilities
EnemyProjectileShotAbil
p2197
(dp2198
g260
I2
sg261
I00
sg262
g1360
sg264
(dp2199
S'cooldown'
p2200
(lp2201
g1364
asS'damageType'
p2202
(lp2203
g344
asS'pic'
p2204
(lp2205
g1360
asS'speed'
p2206
(lp2207
g82
asS'damage'
p2208
(lp2209
g82
assg283
I00
sg284
I0
sg285
I01
sg286
(lp2210
sg288
I30
sg289
F2.0
sg290
I80
sg291
(lp2211
I0
aI80
asg293
Nsg294
I5
sg295
g2189
sg296
(lp2212
I2
asg298
I00
sba(iCode.Units.Abilities
EnemyFireball
p2213
(dp2214
g261
I01
sg262
g1379
sg264
(dp2215
S'cooldown'
p2216
(lp2217
g1383
asS'isSpell'
p2218
(lp2219
g1386
asS'pic'
p2220
(lp2221
g1379
asS'damage'
p2222
(lp2223
g1391
asS'damageType'
p2224
(lp2225
g344
assg283
I00
sg284
I0
sg285
I01
sg286
(lp2226
sg346
(lp2227
sg288
I60
sg289
F25.0
sg290
I80
sg291
(lp2228
I0
aI300
asg293
Nsg294
I5
sg295
g2189
sg296
(lp2229
I2
asg298
I00
sbasg380
I0
sg381
g683
sg383
I00
sg384
I00
sg385
(lp2230
I5626
aI2478
asg387
F2.6323848920990098
sg388
(lp2231
F1.2246467991473532e-16
aF-2.0
asg390
(I292
I101
tp2232
sg392
g393
sg125
I10
sg394
I0
sg395
I0
sg396
I10
sg397
F-1.5707963267948966
sg398
g1428
sg400
(lp2233
(I292
I101
tp2234
a(I292
I102
tp2235
asg127
I1
sg419
I0
sg420
I00
sg421
I40
sg422
(lp2236
I70
aI70
asg424
I0
sg425
I0
sg426
(lp2237
I0
aI0
asg428
I0
sg429
I40
sg430
Nsg435
I2485
sg599
g1466
sg601
(lp2238
I0
aI1
aI2
aI1
ag393
asg603
F4.7123889803846897
sg604
F-1.5707963267948966
sg605
I00
sg606
I01
sg607
(dp2239
sg440
I01
sg609
(dp2240
sg611
F0.87010918681736626
sg612
I0
sg613
F0.89009845014761091
sg614
(dp2241
g599
g1466
sg617
g1470
sg628
I2
sg634
I90
sg429
I40
sg637
g1486
sg640
I200
ssg642
I2
sg643
I00
sg644
I0
sg645
Nsg646
Nsg647
(lp2242
I0
aI0
asg649
g489
sg296
(lp2243
I0
asg284
I1
sg651
I0
sg652
I01
sg653
(lp2244
I292
aI101
asg290
I5
sg655
S'patrol'
p2245
sg656
I2
sg657
I12
sg658
I0
sg659
Nsbag236
(g237
g238
Ntp2246
Rp2247
(dp2248
g242
Nsg243
I0
sg244
F0.2277319149482108
sg245
(iCode.Units.Buffs
BuffStruct
p2249
(dp2250
g248
g2247
sg245
(lp2251
sbsg250
(lp2252
F5262.7058193485127
aF2271.5955140968158
asg252
I0
sg253
I0
sg254
F0.40000000000000002
sg232
(lp2253
F5262.7058193485127
aF2271.5955140968158
asg256
(lp2254
(iCode.Units.Abilities
EnemyProjectileShotAbil
p2255
(dp2256
g260
I2
sg261
I00
sg262
g1360
sg264
(dp2257
S'cooldown'
p2258
(lp2259
g1364
asS'damageType'
p2260
(lp2261
g344
asS'pic'
p2262
(lp2263
g1360
asS'speed'
p2264
(lp2265
g82
asS'damage'
p2266
(lp2267
g82
assg283
I00
sg284
I0
sg285
I01
sg286
(lp2268
sg288
I30
sg289
F2.0
sg290
I80
sg291
(lp2269
I0
aI80
asg293
g2247
sg294
I5
sg295
g2247
sg296
(lp2270
I2
asg298
I00
sba(iCode.Units.Abilities
EnemyFireball
p2271
(dp2272
g261
I01
sg327
(I261
I114
tp2273
sg262
g1379
sg264
(dp2274
S'cooldown'
p2275
(lp2276
g1383
asS'isSpell'
p2277
(lp2278
g1386
asS'pic'
p2279
(lp2280
g1379
asS'damage'
p2281
(lp2282
g1391
asS'damageType'
p2283
(lp2284
g344
assg283
I00
sg284
I0
sg285
I01
sg286
(lp2285
sg346
(lp2286
(iCode.Engine.Effects
FlashingSquare
p2287
(dp2288
g350
I0
sg351
I15
sg352
(lp2289
I260
aI114
asg127
I1
sba(iCode.Engine.Effects
FlashingSquare
p2290
(dp2291
g350
I0
sg351
I15
sg352
(lp2292
I260
aI113
asg127
I1
sba(iCode.Engine.Effects
FlashingSquare
p2293
(dp2294
g350
I0
sg351
I15
sg352
(lp2295
I262
aI114
asg127
I1
sba(iCode.Engine.Effects
FlashingSquare
p2296
(dp2297
g350
I0
sg351
I15
sg352
(lp2298
I262
aI113
asg127
I1
sba(iCode.Engine.Effects
FlashingSquare
p2299
(dp2300
g350
I0
sg351
I15
sg352
(lp2301
I261
aI113
asg127
I1
sba(iCode.Engine.Effects
FlashingSquare
p2302
(dp2303
g350
I0
sg351
I15
sg352
(lp2304
I262
aI115
asg127
I1
sba(iCode.Engine.Effects
FlashingSquare
p2305
(dp2306
g350
I0
sg351
I15
sg352
(lp2307
I260
aI115
asg127
I1
sba(iCode.Engine.Effects
FlashingSquare
p2308
(dp2309
g350
I0
sg351
I15
sg352
(lp2310
I261
aI115
asg127
I1
sba(iCode.Engine.Effects
FlashingSquare
p2311
(dp2312
g350
I0
sg351
I15
sg352
(lp2313
I261
aI114
asg127
I1
sbasg288
I60
sg289
F25.0
sg290
I80
sg291
(lp2314
I0
aI300
asg293
g2247
sg294
I5
sg295
g2247
sg296
(lp2315
I2
asg298
I00
sbasg380
I99
sg381
g683
sg383
I00
sg384
I00
sg385
(lp2316
I6065
aI2551
asg387
F0.24036190674796579
sg388
(lp2317
F-0.94373278958881612
aF-0.33070896851296816
asg390
(I275
I110
tp2318
sg392
g562
sg125
I10
sg394
I0
sg395
I0
sg396
I5
sg397
F-2.2105399092705342
sg398
g1428
sg400
(lp2319
(I275
I110
tp2320
a(I275
I111
tp2321
a(I275
I112
tp2322
a(I275
I113
tp2323
a(I275
I114
tp2324
a(I275
I115
tp2325
a(I275
I116
tp2326
a(I275
I117
tp2327
a(I275
I118
tp2328
a(I275
I119
tp2329
a(I275
I120
tp2330
a(I275
I121
tp2331
asg127
I1
sg419
I0
sg420
I00
sg421
I40
sg422
(lp2332
I46
aI70
asg424
F-2.2105399092705342
sg425
I0
sg426
(lp2333
F-64.761122342527273
aF34.259428067464157
asg428
F0.64000000000000024
sg429
F0.0
sg430
g433
sg435
I360
sg599
g1466
sg601
g602
sg603
F4.072645397909052
sg604
F3.1415926535897931
sg605
I00
sg606
I01
sg607
(dp2334
sg440
I01
sg609
(dp2335
sg611
F0.8559113441806796
sg612
I0
sg613
F0.50097420837140916
sg614
(dp2336
g599
g1466
sg863
S'F1HardEnemy'
p2337
sg616
I120
sg617
g1470
sg626
F0.20000000000000001
sg627
F0.14000000000000001
sg628
I2
sg629
I80
sg630
g1485
sg632
F0.20000000000000001
sg633
I130
sg634
I90
sg429
I40
sg635
I100
sg636
I230
sg637
g1486
sg640
I200
sg641
I5
ssg642
I2
sg643
I00
sg644
I0
sg645
g433
sg646
Nsg647
(lp2338
I0
aI0
asg649
g489
sg296
(lp2339
I2
asg284
I1
sg651
I0
sg652
I01
sg653
(lp2340
I275
aI110
asg290
I5
sg655
g380
sg656
I2
sg657
I13
sg658
I0
sg659
g2255
sbag236
(g237
g238
Ntp2341
Rp2342
(dp2343
g242
Nsg243
I0
sg244
F4.6104046367034952
sg245
(iCode.Units.Buffs
BuffStruct
p2344
(dp2345
g248
g2342
sg245
(lp2346
sbsg250
(lp2347
F5345.4552855750326
aF2196.7170353465531
asg252
F0.40000000000000002
sg253
I0
sg254
F0.40000000000000002
sg232
(lp2348
F5345.4552855750326
aF2196.7170353465531
asg256
(lp2349
(iCode.Units.Abilities
EnemyProjectileShotAbil
p2350
(dp2351
g260
I3
sg261
I00
sg262
g544
sg264
(dp2352
S'cooldown'
p2353
(lp2354
g548
asS'damageType'
p2355
(lp2356
g551
asS'pic'
p2357
(lp2358
g544
asS'speed'
p2359
(lp2360
g282
assg283
I00
sg284
I0
sg285
I01
sg286
(lp2361
sg288
I30
sg289
I5
sg290
I80
sg291
(lp2362
I0
aI40
asg293
g2342
sg294
I8
sg295
g2342
sg296
(lp2363
I2
asg298
I00
sbasg380
I99
sg381
g683
sg383
I00
sg384
I00
sg385
(lp2364
I5274
aI2819
asg387
F2.4883607752253707
sg388
(lp2365
F1.9269113364555805
aF-0.53573566377362702
asg390
(I266
I103
tp2366
sg392
g562
sg125
I10
sg394
I0
sg395
I0
sg396
I1
sg397
F-0.79696510512042562
sg398
g563
sg400
(lp2367
(I266
I103
tp2368
a(I266
I104
tp2369
a(I266
I105
tp2370
a(I266
I106
tp2371
a(I266
I107
tp2372
a(I267
I108
tp2373
a(I268
I109
tp2374
a(I269
I110
tp2375
a(I270
I111
tp2376
a(I271
I112
tp2377
a(I272
I113
tp2378
a(I273
I114
tp2379
a(I274
I115
tp2380
a(I275
I116
tp2381
a(I276
I117
tp2382
a(I277
I118
tp2383
a(I278
I119
tp2384
a(I279
I120
tp2385
a(I280
I121
tp2386
a(I281
I122
tp2387
a(I282
I123
tp2388
asg127
I1
sg419
I0
sg420
I00
sg421
I20
sg422
(lp2389
I15
aI70
asg424
F-0.79696510512042562
sg425
I0
sg426
(lp2390
F16.883832838961627
aF65.186718847765789
asg428
F0.55999999999999994
sg429
F0.0
sg430
g433
sg435
I881
sg599
g600
sg601
g602
sg603
F5.4862202020591608
sg604
F0.0
sg605
I00
sg606
I01
sg607
(dp2391
sg440
I01
sg609
(dp2392
sg611
F0.92606051430355607
sg612
I0
sg613
F0.092547310814581674
sg614
(dp2393
g599
g600
sg616
I100
sg617
g618
sg626
I0
sg627
F0.080000000000000002
sg628
I2
sg629
I80
sg630
g631
sg632
I0
sg633
I100
sg634
I90
sg429
I20
sg635
I50
sg636
I230
sg637
g638
sg640
I200
sg641
I3
ssg642
I2
sg643
I00
sg644
I0
sg645
g433
sg646
Nsg647
(lp2394
I0
aI0
asg649
g489
sg296
(lp2395
sg284
I1
sg651
I0
sg652
I01
sg653
(lp2396
I266
aI103
asg290
I5
sg655
g380
sg656
I2
sg657
I10
sg658
I0
sg659
g2350
sbag236
(g237
g238
Ntp2397
Rp2398
(dp2399
g242
Nsg243
I0
sg244
F4.7123889803846897
sg245
(iCode.Units.Buffs
BuffStruct
p2400
(dp2401
g248
g2398
sg245
(lp2402
sbsg250
(lp2403
F5658.2332570152694
aF2324.266345831159
asg252
I0
sg253
I0
sg254
F0.40000000000000002
sg232
(lp2404
F5658.2332570152694
aF2324.266345831159
asg256
(lp2405
(iCode.Units.Abilities
EnemyProjectileShotAbil
p2406
(dp2407
g260
I3
sg261
I00
sg262
g544
sg264
(dp2408
S'cooldown'
p2409
(lp2410
g548
asS'damageType'
p2411
(lp2412
g551
asS'pic'
p2413
(lp2414
g544
asS'speed'
p2415
(lp2416
g282
assg283
I00
sg284
I0
sg285
I01
sg286
(lp2417
sg288
I30
sg289
I5
sg290
I80
sg291
(lp2418
I0
aI40
asg293
g2398
sg294
I8
sg295
g2398
sg296
(lp2419
I2
asg298
I00
sbasg380
I99
sg381
g382
sg383
I00
sg384
I00
sg385
(lp2420
I5730
aI1968
asg387
F2.4095973886685478
sg388
(lp2421
F-0.80424092439717654
aF-0.594303403595146
asg390
(I276
I142
tp2422
sg392
g562
sg125
I10
sg394
I0
sg395
I0
sg396
I10
sg397
F-2.9514530703533519
sg398
g563
sg400
(lp2423
(I276
I142
tp2424
a(I276
I141
tp2425
a(I276
I140
tp2426
a(I276
I139
tp2427
a(I276
I138
tp2428
a(I276
I137
tp2429
a(I276
I136
tp2430
a(I276
I135
tp2431
a(I276
I134
tp2432
a(I276
I133
tp2433
a(I276
I132
tp2434
a(I276
I131
tp2435
a(I276
I130
tp2436
a(I276
I129
tp2437
a(I276
I128
tp2438
a(I276
I127
tp2439
a(I276
I126
tp2440
a(I276
I125
tp2441
a(I276
I124
tp2442
a(I276
I123
tp2443
a(I276
I122
tp2444
a(I276
I121
tp2445
a(I276
I120
tp2446
a(I276
I119
tp2447
a(I276
I118
tp2448
a(I276
I117
tp2449
a(I276
I116
tp2450
a(I276
I115
tp2451
a(I276
I114
tp2452
a(I276
I113
tp2453
asg127
I1
sg419
I0
sg420
I00
sg421
I20
sg422
(lp2454
I21
aI70
asg424
F-2.9514530703533519
sg425
I0
sg426
(lp2455
F-39.526682041669311
aF-66.27182419202272
asg428
F0.25999999999999979
sg429
F0.0
sg430
g433
sg435
I1530
sg599
g600
sg601
g602
sg603
F3.3317322368262343
sg604
I0
sg605
I00
sg606
I01
sg607
(dp2456
sg440
I01
sg609
(dp2457
sg611
F0.28051355281229018
sg612
I0
sg613
F0.47644370318207574
sg614
(dp2458
g599
g600
sg616
I100
sg617
g618
sg626
I0
sg627
F0.080000000000000002
sg628
I2
sg629
I80
sg630
g631
sg632
I0
sg633
I100
sg634
I90
sg429
I20
sg635
I50
sg636
I230
sg637
g638
sg640
I200
sg641
I3
ssg642
I2
sg643
I00
sg644
I0
sg645
g433
sg646
Nsg647
(lp2459
I0
aI0
asg649
g489
sg296
(lp2460
sg284
I1
sg651
I0
sg652
I01
sg653
(lp2461
I276
aI142
asg290
I5
sg655
g380
sg656
I2
sg657
I31
sg658
I0
sg659
g2406
sbag236
(g237
g238
Ntp2462
Rp2463
(dp2464
g242
Nsg243
I0
sg244
F4.7123889803846897
sg245
(iCode.Units.Buffs
BuffStruct
p2465
(dp2466
g248
g2463
sg245
(lp2467
sbsg250
(lp2468
F5314.4187312022705
aF2169.5145804424401
asg252
F0.80000000000000004
sg253
I0
sg254
F0.40000000000000002
sg232
(lp2469
F5314.4187312022705
aF2169.5145804424401
asg256
(lp2470
(iCode.Units.Abilities
EnemyProjectileShotAbil
p2471
(dp2472
g260
I3
sg261
I00
sg262
g544
sg264
(dp2473
S'cooldown'
p2474
(lp2475
g548
asS'damageType'
p2476
(lp2477
g551
asS'pic'
p2478
(lp2479
g544
asS'speed'
p2480
(lp2481
g282
assg283
I00
sg284
I0
sg285
I01
sg286
(lp2482
sg288
I30
sg289
I5
sg290
I80
sg291
(lp2483
I0
aI40
asg293
g2463
sg294
I8
sg295
g2463
sg296
(lp2484
I2
asg298
I00
sbasg380
I99
sg381
g382
sg383
I00
sg384
I00
sg385
(lp2485
I6065
aI2102
asg387
F0.57748577309439897
sg388
(lp2486
F0.41225770199121825
aF-0.91106727915611141
asg390
(I276
I118
tp2487
sg392
g562
sg125
I10
sg394
I0
sg395
I0
sg396
I8
sg397
F-0.92404144231984942
sg398
g563
sg400
(lp2488
(I276
I118
tp2489
a(I277
I118
tp2490
a(I278
I118
tp2491
a(I279
I118
tp2492
a(I280
I118
tp2493
a(I281
I118
tp2494
a(I282
I118
tp2495
a(I283
I118
tp2496
a(I284
I118
tp2497
a(I285
I118
tp2498
a(I286
I118
tp2499
a(I287
I118
tp2500
a(I288
I118
tp2501
asg127
I1
sg419
I0
sg420
I00
sg421
I20
sg422
(lp2502
I13
aI70
asg424
F-0.92404144231984942
sg425
I0
sg426
(lp2503
F10.340653867311348
aF-58.496797219256329
asg428
F0.60999999999999976
sg429
F0.0
sg430
g433
sg435
I922
sg599
g600
sg601
g602
sg603
F5.3591438648597371
sg604
I0
sg605
I00
sg606
I01
sg607
(dp2504
sg440
I01
sg609
(dp2505
sg611
F0.64374227602114897
sg612
I0
sg613
F0.80123008748226099
sg614
(dp2506
g599
g600
sg616
I100
sg617
g618
sg626
I0
sg627
F0.080000000000000002
sg628
I2
sg629
I80
sg630
g631
sg632
I0
sg633
I100
sg634
I90
sg429
I20
sg635
I50
sg636
I230
sg637
g638
sg640
I200
sg641
I3
ssg642
I2
sg643
I00
sg644
I0
sg645
g433
sg646
Nsg647
(lp2507
I0
aI0
asg649
g489
sg296
(lp2508
sg284
I1
sg651
I0
sg652
I01
sg653
(lp2509
I276
aI118
asg290
I5
sg655
g380
sg656
I2
sg657
I40
sg658
I0
sg659
g2471
sbasS'timeToSleep'
p2510
I0
sS'decorObjects'
p2511
(lp2512
sS'decorations'
p2513
(lp2514
(I276
I100
tp2515
a(I260
I124
tp2516
a(I284
I116
tp2517
a(I300
I116
tp2518
a(I292
I140
tp2519
a(I276
I108
tp2520
a(I276
I108
tp2521
a(I284
I108
tp2522
a(I268
I116
tp2523
a(I260
I124
tp2524
a(I284
I132
tp2525
a(I268
I124
tp2526
asS'isBossRoom'
p2527
I00
sS'piece'
p2528
(iCode.Engine.DungeonGenerator
DungeonPiece
p2529
(dp2530
g128
(lp2531
(lp2532
I12
aI8
aI8
aI8
aI8
aI9
aa(lp2533
I4
aI0
aI0
aI0
aI0
aI1
aa(lp2534
I4
aI0
aI0
aI0
aI0
aI1
aa(lp2535
I4
aI0
aI0
aI0
aI0
aI1
aa(lp2536
I4
aI0
aI0
aI0
aI0
aI1
aa(lp2537
I6
aI2
aI2
aI2
aI2
aI3
aasS'grid'
p2538
(lp2539
(lp2540
I0
aI0
aI0
aI0
aI0
aI0
aa(lp2541
I0
aI0
aI0
aI0
aI0
aI0
aa(lp2542
I0
aI0
aI0
aI0
aI0
aI0
aa(lp2543
I0
aI0
aI0
aI0
aI0
aI0
aa(lp2544
I0
aI0
aI0
aI0
aI0
aI0
aa(lp2545
I0
aI0
aI0
aI0
aI0
aI0
aasS'isRoom'
p2546
I01
sbsg2546
I01
sbI01
ssg471
I00
sg454
F14.406846412572229
sg472
(dp2547
sg248
g433
sg474
I0
sg475
I0
sbasS'nextMoveTick'
p2548
I9
sg248
g433
sbsg655
g380
sS'selectedAbil'
p2549
I3
sS'guilds'
p2550
(iCode.Units.Guilds
GuildLevels
p2551
(dp2552
S'activeGuild'
p2553
I1
sg2550
(lp2554
(iCode.Units.Guilds
Guild
p2555
(dp2556
S'nextAbilityAt'
p2557
I7
sg284
I6
sS'levelChanged'
p2558
I00
sS'targetExperience'
p2559
F46.437970406211093
sg635
F46.437970406211093
sS'guildID'
p2560
I0
sg248
g433
sba(iCode.Units.Guilds
Guild
p2561
(dp2562
g2557
I2
sg284
I8
sg2558
I00
sg2559
F486.55071990875479
sg635
F486.55071990875479
sg2560
I1
sg248
g433
sbasg248
g433
sbsS'attackSide'
p2563
I1
sg384
I00
sg385
(lp2564
I0
aI0
asg388
(lp2565
I0
aF2.0
asS'spawned'
p2566
I01
sg392
g562
sg125
I10
sg394
I0
sg395
I0
sg397
F1.5707963267948966
sS'targetHealth'
p2567
F-2.6731656374488999
sg127
I2
sg419
I0
sg420
I00
sg421
I75
sg424
I0
sS'equipment'
p2568
(iCode.Units.Equipment
Equipment
p2569
(dp2570
S'cash'
p2571
F342.35418727508215
sS'cachedStats'
p2572
(dp2573
S'mmoveSpeed'
p2574
(lp2575
I310
aF1.0
asg626
(lp2576
I310
aI0
asS'RESISTANCES'
p2577
(lp2578
I310
a(lp2579
F0.0
aF0.0
aF0.0
aF0.0
aF0.0
aF0.0
aF0.0
aF0.0
aF0.0
aF0.0
aasS'moveSpeed'
p2580
(lp2581
I310
aF4.0
asg633
(lp2582
I310
aI7
asg616
(lp2583
I310
aI18
asg429
(lp2584
I305
aI0
asS'KEYWORDS'
p2585
(dp2586
S'Shield'
p2587
(lp2588
I310
aI0
asS'WaterWalking'
p2589
(lp2590
I309
aI0
asssS'inventory'
p2591
(lp2592
(iCode.Units.Equipment
Item
p2593
(dp2594
g295
g433
sS'attributes'
p2595
(dp2596
S'RESISTANCES'
p2597
(lp2598
F0.0
aF0.0
aF0.0
aF0.0
aF0.0
aF0.0
aF0.0
aF0.0
aF0.0
aF0.0
asS'MOVESPEED'
p2599
F1.1000000000000001
sS'STUNFACTOR'
p2600
F1.0
sS'KEYWORDS'
p2601
(dp2602
sS'ABILITY'
p2603
NsS'MAXUNITSHIT'
p2604
I2
sS'SLOTS'
p2605
(lp2606
I0
aI1
asS'ICON'
p2607
(lp2608
I0
aI0
asS'BASICATTACK'
p2609
(iCode.Units.Abilities
BasicAttack
p2610
(dp2611
g261
I00
sg283
I00
sg284
I0
sg285
I01
sg286
(lp2612
sg288
I2
sg290
I20
sg291
(lp2613
I0
aI0
asg293
Nsg260
I8
sg295
g433
sg296
(lp2614
I0
asg298
I00
sbsS'KNOCKBACK'
p2615
F0.69999999999999996
sS'RANGE'
p2616
I50
sS'COOLDOWN'
p2617
I20
sS'DESCRIPTION'
p2618
S'Wood Dagger'
p2619
sS'MULTISLOT'
p2620
I00
sS'ITEMTYPE'
p2621
S'weapon'
p2622
sS'DAMAGETYPE'
p2623
I1
sS'DAMAGE'
p2624
F0.69999999999999996
sS'MELEE'
p2625
I01
sS'ATTACK'
p2626
I5
sS'DEFENSE'
p2627
I0
sS'PROJECTILE'
p2628
S''
p2629
sS'SPEED'
p2630
I20
ssba(iCode.Units.Equipment
Item
p2631
(dp2632
g295
g433
sg2595
(dp2633
g2597
g2598
sg2599
F1.1000000000000001
sg2600
F1.0
sg2601
g2602
sg2603
Nsg2604
I2
sg2605
g2606
sg2607
g2608
sg2609
(iCode.Units.Abilities
BasicAttack
p2634
(dp2635
g261
I00
sg283
I00
sg284
I0
sg285
I01
sg286
(lp2636
I10
aI11
aI12
aS'idle'
p2637
asg288
I2
sg290
I20
sg291
(lp2638
I0
aI0
asg293
g433
sg260
I8
sg295
g433
sg296
(lp2639
I0
asg298
I00
sbsg2615
F0.69999999999999996
sg2616
I50
sg2617
I20
sg2618
g2619
sg2620
I00
sg2621
g2622
sg2623
I1
sg2624
F0.69999999999999996
sg2625
I01
sg2626
I5
sg2627
I0
sg2628
g2629
sg2630
I20
ssba(iCode.Units.Equipment
Item
p2640
(dp2641
g295
g433
sg2595
(dp2642
S'RESISTANCES'
p2643
(lp2644
F0.0
aF0.0
aF0.0
aF0.0
aF0.0
aF0.0
aF0.0
aF0.0
aF0.0
aF0.0
asS'MOVESPEED'
p2645
F1.0
sS'STUNFACTOR'
p2646
F0.5
sS'KEYWORDS'
p2647
(dp2648
sS'ABILITY'
p2649
NsS'MAXUNITSHIT'
p2650
I2
sS'SLOTS'
p2651
(lp2652
I0
aI1
asS'ICON'
p2653
(lp2654
I0
aI1
asS'BASICATTACK'
p2655
(iCode.Units.Abilities
BasicAttack
p2656
(dp2657
g261
I00
sg283
I00
sg284
I0
sg285
I01
sg286
(lp2658
I5
aI6
aI7
ag2637
asg288
I2
sg290
I20
sg291
(lp2659
I24
aI0
asg293
g433
sg260
I8
sg295
g433
sg296
(lp2660
I0
asg298
I00
sbsS'KNOCKBACK'
p2661
F1.0
sS'RANGE'
p2662
I160
sS'COOLDOWN'
p2663
I40
sg2618
S'Pine Bow'
p2664
sS'MULTISLOT'
p2665
I01
sS'ITEMTYPE'
p2666
S'weapon'
p2667
sS'DAMAGETYPE'
p2668
I2
sS'DAMAGE'
p2669
F1.0
sS'MELEE'
p2670
I00
sS'ATTACK'
p2671
I0
sS'DEFENSE'
p2672
I-5
sS'PROJECTILE'
p2673
S'Arrow'
p2674
sS'SPEED'
p2675
I30
ssbasS'baseAttack'
p2676
(iCode.Units.Abilities
BasicAttack
p2677
(dp2678
g261
I00
sg283
I00
sg284
I0
sg285
I01
sg286
(lp2679
sg288
I2
sg290
I20
sg291
(lp2680
I0
aI0
asg293
Nsg260
I8
sg295
g433
sg296
(lp2681
I0
asg298
I00
sbsS'equipped'
p2682
(lp2683
(iCode.Units.Equipment
Item
p2684
(dp2685
g295
g433
sg2595
(dp2686
g2597
g2598
sg2599
F1.1000000000000001
sg2600
F1.0
sg2601
g2602
sg2603
Nsg2604
I2
sg2605
g2606
sg2607
g2608
sg2609
(iCode.Units.Abilities
BasicAttack
p2687
(dp2688
g261
I00
sg283
I00
sg284
I0
sg285
I01
sg286
(lp2689
I5
aI6
aI7
ag2637
asg288
I2
sg290
I20
sg291
(lp2690
I20
aI0
asg293
g433
sg260
I8
sg295
g433
sg296
(lp2691
I0
asg298
I00
sbsg2615
F0.69999999999999996
sg2616
I50
sg2617
I20
sg2618
g2619
sg2620
I00
sg2621
g2622
sg2623
I1
sg2624
F0.69999999999999996
sg2625
I01
sg2626
I5
sg2627
I0
sg2628
g2629
sg2630
I20
ssba(iCode.Units.Equipment
Item
p2692
(dp2693
g295
g433
sg2595
(dp2694
S'RESISTANCES'
p2695
(lp2696
F0.0
aF0.0
aF0.0
aF0.0
aF0.0
aF0.0
aF0.0
aF0.0
aF0.0
aF0.0
asS'MOVESPEED'
p2697
F1.0
sS'STUNFACTOR'
p2698
F1.0
sS'KEYWORDS'
p2699
(dp2700
sS'ABILITY'
p2701
NsS'MAXUNITSHIT'
p2702
I3
sS'SLOTS'
p2703
(lp2704
I0
aI1
asS'ICON'
p2705
(lp2706
I0
aI2
asS'BASICATTACK'
p2707
(iCode.Units.Abilities
BasicAttack
p2708
(dp2709
g261
I00
sg283
I00
sg284
I0
sg285
I01
sg286
(lp2710
I10
aI11
aI12
ag2637
asg288
I2
sg290
I20
sg291
(lp2711
I0
aI0
asg293
g433
sg260
I8
sg295
g433
sg296
(lp2712
I0
asg298
I00
sbsS'KNOCKBACK'
p2713
F1.0
sS'RANGE'
p2714
I80
sS'COOLDOWN'
p2715
I40
sg2618
S'Wood Sword'
p2716
sS'MULTISLOT'
p2717
I00
sS'ITEMTYPE'
p2718
S'weapon'
p2719
sS'DAMAGETYPE'
p2720
I1
sS'DAMAGE'
p2721
F1.0
sS'MELEE'
p2722
I01
sS'ATTACK'
p2723
I7
sS'DEFENSE'
p2724
I3
sS'PROJECTILE'
p2725
g2629
sS'SPEED'
p2726
I30
ssba(iCode.Units.Equipment
Item
p2727
(dp2728
g295
g433
sg2595
(dp2729
S'MULTISLOT'
p2730
I00
sS'KNOCKBACK'
p2731
F0.0
sS'ITEMTYPE'
p2732
S'helm'
p2733
sS'MOVESPEED'
p2734
F1.0
sS'DAMAGETYPE'
p2735
I0
sS'RESISTANCES'
p2736
(lp2737
F0.0
aF0.0
aF0.0
aF0.0
aF0.0
aF0.0
aF0.0
aF0.0
aF0.0
aF0.0
asS'ICON'
p2738
(lp2739
I1
aI0
asS'DAMAGE'
p2740
F1.0
sS'MELEE'
p2741
I00
sS'ATTACK'
p2742
I0
sS'DEFENSE'
p2743
I5
sS'STUNFACTOR'
p2744
F0.0
sS'PROJECTILE'
p2745
S'None'
p2746
sS'KEYWORDS'
p2747
(dp2748
sS'MAXUNITSHIT'
p2749
I0
sS'SLOTS'
p2750
(lp2751
I2
asg2618
S'Fancy Hat'
p2752
sS'SPEED'
p2753
I0
sS'BASICATTACK'
p2754
NsS'RANGE'
p2755
I0
sS'ABILITY'
p2756
Nssba(iCode.Units.Equipment
Item
p2757
(dp2758
g295
g433
sg2595
(dp2759
S'MULTISLOT'
p2760
I00
sS'KNOCKBACK'
p2761
F0.0
sS'ITEMTYPE'
p2762
S'armour'
p2763
sS'MOVESPEED'
p2764
F1.0
sS'DAMAGETYPE'
p2765
I0
sS'RESISTANCES'
p2766
(lp2767
F0.0
aF0.0
aF0.0
aF0.0
aF0.0
aF0.0
aF0.0
aF0.0
aF0.0
aF0.0
asS'ICON'
p2768
(lp2769
I0
aI1
asS'DAMAGE'
p2770
F1.0
sS'MELEE'
p2771
I00
sS'ATTACK'
p2772
I0
sS'DEFENSE'
p2773
I5
sS'STUNFACTOR'
p2774
F0.0
sS'PROJECTILE'
p2775
S'None'
p2776
sS'KEYWORDS'
p2777
(dp2778
sS'MAXUNITSHIT'
p2779
I0
sS'SLOTS'
p2780
(lp2781
I3
asg2618
S'Cloth Armour'
p2782
sS'SPEED'
p2783
I0
sS'BASICATTACK'
p2784
NsS'RANGE'
p2785
I0
sS'ABILITY'
p2786
NssbaNa(iCode.Units.Equipment
Item
p2787
(dp2788
g295
g433
sg2595
(dp2789
S'MULTISLOT'
p2790
I00
sS'KNOCKBACK'
p2791
F0.0
sS'ITEMTYPE'
p2792
S'boots'
p2793
sS'MOVESPEED'
p2794
F1.0
sS'DAMAGETYPE'
p2795
I0
sS'RESISTANCES'
p2796
(lp2797
F0.0
aF0.0
aF0.0
aF0.0
aF0.0
aF0.0
aF0.0
aF0.0
aF0.0
aF0.0
asS'ICON'
p2798
(lp2799
I1
aI0
asS'DAMAGE'
p2800
F1.0
sS'MELEE'
p2801
I00
sS'ATTACK'
p2802
I0
sS'DEFENSE'
p2803
I5
sS'STUNFACTOR'
p2804
F0.0
sS'PROJECTILE'
p2805
S'None'
p2806
sS'KEYWORDS'
p2807
(dp2808
sS'MAXUNITSHIT'
p2809
I0
sS'SLOTS'
p2810
(lp2811
I5
asg2618
S'Boots'
p2812
sS'SPEED'
p2813
I0
sS'BASICATTACK'
p2814
NsS'RANGE'
p2815
I0
sS'ABILITY'
p2816
NssbaNaNaNaNaNasg295
g433
sS'currentHand'
p2817
I1
sS'equipmentIteration'
p2818
I310
sbsg428
I0
sg429
F-2.6731656374488999
sg659
(iCode.Units.Abilities
IceBall
p2819
(dp2820
g261
I01
sg262
S'MagicMissile'
p2821
sS'firstCallback'
p2822
I01
sg283
I00
sg284
I0
sg285
I01
sg286
(lp2823
I15
aI16
aI17
aI18
aI19
aI17
aI18
aI19
aI17
aI18
aI19
aI17
aI18
aI19
aI17
aI18
aI19
aI20
aI20
aI20
ag2637
asg288
I40
sS'Damage'
p2824
I15
sg290
I20
sg291
(lp2825
I0
aI200
asg293
g433
sg260
I3
sg295
g433
sS'firstHitFrame'
p2826
I17
sg296
(lp2827
F17.0
asg324
I1
sg298
I00
sbsg425
Nsg599
S'Thief'
p2828
sg601
(lp2829
I3
aI3
aI3
ag562
asg603
F1.5707963267948966
sg605
I00
sg606
I01
sg607
(dp2830
sg440
I00
sg609
(dp2831
sg611
F0.54330956089586058
sS'abilsSelected'
p2832
(lp2833
(iCode.Units.Abilities
BoomerangBlade
p2834
(dp2835
g261
I00
sg283
I00
sg284
I0
sg285
I01
sg286
(lp2836
I5
aI6
aI7
ag2637
asg288
I50
sg290
I20
sg291
(lp2837
I0
aI120
asg293
g433
sg260
I8
sg295
g433
sg296
(lp2838
I0
asg298
I00
sba(iCode.Units.Abilities
IcicleBlast
p2839
(dp2840
g261
I01
sS'shotOn'
p2841
I405
sg262
S'Icicle'
p2842
sg2822
I01
sg283
I00
sg284
I0
sg285
I01
sg286
(lp2843
I15
aI16
aI17
aI18
aI19
aI17
aI18
aI19
aI17
aI18
aI19
aI20
aI20
aI20
aI20
aI20
aI20
aI20
aI20
aI20
ag2637
asg288
I40
sg2824
F1.0
sg290
I20
sg291
(lp2844
I0
aI60
asg645
g438
sg293
g433
sg260
I10
sg295
g433
sS'shotsPerFrame'
p2845
I2
sg2826
I11
sg296
(lp2846
F11.0
aF11.6
aF12.199999999999999
aF12.800000000000001
aF13.4
aF14.0
aF14.6
aF15.199999999999999
aF15.800000000000001
aF16.399999999999999
aF17.0
aF17.600000000000001
aF18.199999999999999
aF18.800000000000001
aF19.399999999999999
asg324
I15
sg298
I00
sba(iCode.Units.Abilities
Ignite
p2847
(dp2848
g261
I01
sg262
S'Sparks'
p2849
sg2822
I01
sg283
I00
sg284
I0
sg285
I01
sg286
(lp2850
I15
aI16
aI17
aI18
aI19
aI17
aI18
aI19
aI17
aI18
aI19
aI17
aI18
aI19
aI17
aI18
aI19
aI20
aI20
aI20
ag2637
asg288
I40
sg2824
I15
sg290
I20
sg291
(lp2851
I0
aI200
asg293
g433
sg260
I3
sg295
g433
sg2826
I17
sg296
(lp2852
F17.0
asg324
I1
sg298
I00
sbag2819
a(iCode.Units.Abilities
Chill
p2853
(dp2854
g261
I01
sg262
g2821
sg2822
I01
sg283
I00
sg284
I0
sg285
I01
sg286
(lp2855
I15
aI16
aI17
aI18
aI19
aI17
aI18
aI19
aI17
aI18
aI19
aI17
aI18
aI19
aI17
aI18
aI19
aI17
aI18
aI19
aI17
aI18
aI19
aI20
aI20
aI20
ag2637
asg288
I50
sg2824
I15
sg290
I20
sg291
(lp2856
I0
aI250
asg293
g433
sg260
I3
sg295
g433
sg2826
I23
sg296
(lp2857
F23.0
asg324
I1
sg298
I00
sbasS'controller'
p2858
I1
sg613
F0.54330956089586058
sg614
(dp2859
g626
F0.0
sg633
I100
sg616
I100
sg429
I10
ssg642
I3
sS'name'
p2860
S'asdf'
p2861
sS'abilsKnown'
p2862
(lp2863
S'PowerAttack'
p2864
aS'TripleAttack'
p2865
aS'Smash'
p2866
aS'SplitAttack'
p2867
aS'Charge'
p2868
aS'BoomerangBlade'
p2869
ag2821
ag2849
aS'IcicleBlast'
p2870
aS'MissileStorm'
p2871
aS'Ignite'
p2872
aS'IceBall'
p2873
aS'Chill'
p2874
asg646
Nsg647
(lp2875
I0
aI0
asg645
g438
sg296
(lp2876
sg284
I1
sS'controlled'
p2877
I1
sS'abilSelected'
p2878
I1
sg652
I01
sg290
I5
sg656
I1
sS'respawnTimer'
p2879
I0
sS'targetDummy'
p2880
g438
sg658
I0
sbsg435
I589
sg599
S'Serpent'
p2881
sg601
g2238
sg603
F1.5707963267948966
sg604
F1.3164864977643574e-09
sg605
I00
sg606
I01
sg607
(dp2882
sg440
I00
sg609
(dp2883
sg611
F0.763139986157365
sg612
I0
sg613
F0.79993883989966141
sg614
(dp2884
g599
g2881
sg617
(lp2885
(lp2886
g620
a(lp2887
S'-pic'
p2888
ag263
aS'-cooldown'
p2889
ag279
aS'-range'
p2890
ag276
aS'-animationTime'
p2891
ag268
aS'-speed'
p2892
ag282
aS'-damageType'
p2893
ag271
aaa(lp2894
cCode.Units.Abilities
EnemyMultiShotAbil
p2895
a(lp2896
S'-pic'
p2897
ag301
aS'-range'
p2898
ag312
aS'-animationTime'
p2899
ag305
aS'-cooldown'
p2900
ag315
aS'-speed'
p2901
ag74
aS'-damageType'
p2902
ag271
aS'-shots'
p2903
ag318
aaa(lp2904
g1242
a(lp2905
S'-pic'
p2906
ag329
aS'-cooldown'
p2907
ag333
aS'-animationTime'
p2908
ag336
aS'-damage'
p2909
ag341
aS'-damageType'
p2910
ag344
aaasg626
F0.5
sg628
F1.5
sg629
I130
sg630
(lp2911
F0.0
aF0.0
aF0.0
aF0.0
aF0.0
aF0.0
aF0.0
aF0.0
aF0.0
aF0.0
asg632
F0.69999999999999996
sg641
I1
sg634
I300
sg429
I110
sg635
I300
sg636
I230
sg637
(dp2912
S'WaterWalking'
p2913
F0.29999999999999999
ssg640
I500
sg633
I250
ssg642
I3
sg643
I00
sg644
I0
sg645
Nsg646
Nsg647
(lp2914
I0
aI0
asg649
g182
sg296
(lp2915
sg284
I1
sg651
I55
sg652
I01
sg653
(I4252
I1958
tp2916
sg290
I5
sg655
g2245
sg656
I2
sg657
I8
sg658
I0
sg659
g299
sbag236
(g237
g238
Ntp2917
Rp2918
(dp2919
g242
Nsg243
I0
sg244
F4.7123889803846897
sg245
(iCode.Units.Buffs
BuffStruct
p2920
(dp2921
g248
g2918
sg245
(lp2922
sbsg250
(lp2923
F3910.2035263602434
aF2330.2035263602334
asg252
F1.7000000000000004
sg253
I0
sg254
F0.10000000000000001
sg232
(lp2924
F3909.1428661884634
aF2329.1428661884538
asg256
(lp2925
(iCode.Units.Abilities
EnemyProjectileShotAbil
p2926
(dp2927
g260
I3
sg261
I00
sg262
g263
sg264
(dp2928
S'animationTime'
p2929
(lp2930
g268
asS'damageType'
p2931
(lp2932
g271
asS'pic'
p2933
(lp2934
g263
asS'range'
p2935
(lp2936
g276
asS'cooldown'
p2937
(lp2938
g279
asS'speed'
p2939
(lp2940
g282
assg283
I00
sg284
I0
sg285
I01
sg286
(lp2941
sg288
I30
sg289
I5
sg290
F300.0
sg291
(lp2942
I0
aI20
asg293
g2918
sg294
I9
sg295
g2918
sg296
(lp2943
I2
asg298
I00
sba(iCode.Units.Abilities
EnemyMultiShotAbil
p2944
(dp2945
g260
I1
sg261
I00
sg262
g301
sg264
(dp2946
S'animationTime'
p2947
(lp2948
g305
asS'damageType'
p2949
(lp2950
g271
asS'pic'
p2951
(lp2952
g301
asS'range'
p2953
(lp2954
g312
asS'cooldown'
p2955
(lp2956
g315
asS'shots'
p2957
(lp2958
g318
asS'speed'
p2959
(lp2960
g74
assg283
I00
sg284
I0
sg285
I01
sg286
(lp2961
sg288
I30
sg289
I5
sg290
F300.0
sg291
(lp2962
I0
aI50
asg293
g2918
sg294
I9
sg295
g2918
sg296
(lp2963
I2
asg324
I10
sg298
I00
sba(iCode.Units.Abilities
EnemyFireball
p2964
(dp2965
g261
I00
sg327
(I215
I107
tp2966
sg262
g329
sg264
(dp2967
S'cooldown'
p2968
(lp2969
g333
asS'animationTime'
p2970
(lp2971
g336
asS'pic'
p2972
(lp2973
g329
asS'damage'
p2974
(lp2975
g341
asS'damageType'
p2976
(lp2977
g344
assg283
I00
sg284
I0
sg285
I01
sg286
(lp2978
sg346
(lp2979
(iCode.Engine.Effects
FlashingSquare
p2980
(dp2981
g350
I0
sg351
I10
sg352
(lp2982
I214
aI107
asg127
I2
sba(iCode.Engine.Effects
FlashingSquare
p2983
(dp2984
g350
I0
sg351
I10
sg352
(lp2985
I214
aI106
asg127
I2
sba(iCode.Engine.Effects
FlashingSquare
p2986
(dp2987
g350
I0
sg351
I10
sg352
(lp2988
I216
aI107
asg127
I2
sba(iCode.Engine.Effects
FlashingSquare
p2989
(dp2990
g350
I0
sg351
I10
sg352
(lp2991
I216
aI106
asg127
I2
sba(iCode.Engine.Effects
FlashingSquare
p2992
(dp2993
g350
I0
sg351
I10
sg352
(lp2994
I215
aI106
asg127
I2
sba(iCode.Engine.Effects
FlashingSquare
p2995
(dp2996
g350
I0
sg351
I10
sg352
(lp2997
I216
aI108
asg127
I2
sba(iCode.Engine.Effects
FlashingSquare
p2998
(dp2999
g350
I0
sg351
I10
sg352
(lp3000
I214
aI108
asg127
I2
sba(iCode.Engine.Effects
FlashingSquare
p3001
(dp3002
g350
I0
sg351
I10
sg352
(lp3003
I215
aI108
asg127
I2
sba(iCode.Engine.Effects
FlashingSquare
p3004
(dp3005
g350
I0
sg351
I10
sg352
(lp3006
I215
aI107
asg127
I2
sbasg288
I40
sg289
F25.0
sg290
I80
sg291
(lp3007
I0
aI200
asg293
g2918
sg294
I5
sg295
g2918
sg296
(lp3008
I2
asg298
I00
sbasg380
I0
sg381
g382
sg383
I00
sg384
I00
sg385
(lp3009
I4191
aI2606
asg387
F3.9358216211876242
sg388
(lp3010
F-1.0606601717800861
aF-1.0606601717795567
asg390
(I188
I106
tp3011
sg392
g393
sg125
I10
sg394
I0
sg395
I0
sg396
I10
sg397
F-2.3561944901925944
sg398
g399
sg400
(lp3012
(I188
I106
tp3013
a(I188
I107
tp3014
a(I188
I108
tp3015
a(I188
I109
tp3016
a(I189
I110
tp3017
a(I190
I111
tp3018
a(I191
I112
tp3019
a(I192
I113
tp3020
a(I193
I114
tp3021
a(I194
I115
tp3022
asg127
I2
sg419
I0
sg420
I00
sg421
I110
sg422
(lp3023
I49
aI70
asg424
F0.4588036043471978
sg425
I0
sg426
(lp3024
F-63.138098847694579
aF89.146535853593349
asg428
F0.70000000000000029
sg429
F31.126908577229578
sg430
g433
sg435
I884
sg599
g2881
sg601
g2238
sg603
F3.9269908169869918
sg604
I0
sg605
I00
sg606
I01
sg607
(dp3025
sg440
I00
sg609
(dp3026
sg611
F0.035156027765426145
sg612
I0
sg613
F0.496151656612843
sg614
(dp3027
g599
g2881
sg617
g2885
sg626
F0.5
sg628
F1.5
sg629
I130
sg630
g2911
sg632
F0.69999999999999996
sg641
I1
sg634
I300
sg429
I110
sg635
I300
sg636
I230
sg637
g2912
sg640
I500
sg633
I250
ssg642
I3
sg643
I00
sg644
I0
sg645
Nsg646
Nsg647
(lp3028
I0
aI0
asg649
g182
sg296
(lp3029
sg284
I1
sg651
I0
sg652
I01
sg653
(lp3030
I188
aI106
asg290
I5
sg655
g2245
sg656
I2
sg657
I35
sg658
I0
sg659
g2964
sbasg2510
I199
sg2511
(lp3031
sg2513
(lp3032
(I204
I108
tp3033
a(I188
I140
tp3034
a(I188
I108
tp3035
a(I220
I108
tp3036
a(I180
I116
tp3037
a(I220
I140
tp3038
a(I212
I108
tp3039
a(I212
I140
tp3040
a(I180
I132
tp3041
a(I204
I116
tp3042
a(I196
I100
tp3043
a(I188
I124
tp3044
asg2527
I01
sg2528
(iCode.Engine.DungeonGenerator
DungeonPiece
p3045
(dp3046
g128
(lp3047
(lp3048
I12
aI8
aI8
aI8
aI8
aI9
aa(lp3049
I4
aI0
aI0
aI0
aI0
aI1
aa(lp3050
I4
aI0
aI0
aI0
aI0
aI1
aa(lp3051
I4
aI0
aI0
aI0
aI0
aI1
aa(lp3052
I4
aI0
aI0
aI0
aI0
aI1
aa(lp3053
I6
aI2
aI2
aI2
aI2
aI3
aasg2538
(lp3054
(lp3055
I0
aI0
aI0
aI0
aI0
aI0
aa(lp3056
I0
aI0
aI0
aI0
aI0
aI0
aa(lp3057
I0
aI0
aI0
aI0
aI0
aI0
aa(lp3058
I0
aI0
aI0
aI0
aI0
aI0
aa(lp3059
I0
aI0
aI0
aI0
aI0
aI0
aa(lp3060
I0
aI0
aI0
aI0
aI0
aI0
aasg2546
I01
sbsg2546
I01
sbasg2538
(lp3061
(lp3062
I1
aI1
aI1
aI1
aI1
aI1
aI1
aI1
aI1
aI1
aI1
aI1
aI1
aI1
aI1
aI1
aI1
aI1
aI1
aI1
aI1
aI1
aI1
aI1
aI1
aI1
aI1
aI1
aI1
aI1
aI1
aI1
aI1
aI1
aI1
aI1
aI1
aI1
aI1
aI1
aI1
aI1
aI1
aI1
aI1
aI1
aI1
aI1
aI1
aI1
aa(lp3063
I1
aI1
aI1
aI1
aI1
aI1
aI1
aI1
aI1
aI1
aI1
aI1
aI1
aI1
aI1
aI1
aI1
aI1
aI1
aI1
aI1
aI1
aI1
aI1
aI1
aI1
aI1
aI1
aI1
aI1
aI1
aI1
aI1
aI1
aI1
aI1
aI1
aI1
aI1
aI1
aI1
aI1
aI1
aI1
aI1
aI1
aI1
aI1
aI1
aI1
aa(lp3064
I1
aI1
aI1
aI1
aI1
aI1
aI1
aI1
aI1
aI1
aI1
aI1
aI1
aI1
aI1
aI1
aI1
aI1
aI1
aI1
aI1
aI1
aI1
aI1
aI1
aI1
aI1
aI1
aI1
aI1
aI1
aI1
aI1
aI1
aI1
aI1
aI1
aI1
aI1
aI1
aI1
aI1
aI1
aI1
aI1
aI1
aI1
aI1
aI1
aI1
aa(lp3065
I1
aI1
aI1
aI1
aI1
aI1
aI1
aI1
aI1
aI1
aI1
aI1
aI1
aI1
aI1
aI1
aI1
aI1
aI1
aI1
aI1
aI1
aI1
aI1
aI1
aI1
aI1
aI1
aI1
aI1
aI1
aI1
aI1
aI1
aI1
aI1
aI1
aI1
aI1
aI1
aI1
aI1
aI1
aI1
aI1
aI1
aI1
aI1
aI1
aI1
aa(lp3066
I1
aI1
aI1
aI1
aI1
aI1
aI1
aI1
aI1
aI1
aI1
aI1
aI1
aI1
aI1
aI1
aI1
aI1
aI1
aI1
aI1
aI1
aI1
aI1
aI1
aI1
aI1
aI1
aI1
aI1
aI1
aI1
aI1
aI1
aI1
aI1
aI1
aI1
aI1
aI1
aI1
aI1
aI1
aI1
aI1
aI1
aI1
aI1
aI1
aI1
aa(lp3067
I1
aI1
aI1
aI1
aI1
aI1
aI1
aI1
aI1
aI1
aI1
aI1
aI1
aI1
aI1
aI1
aI1
aI1
aI1
aI1
aI1
aI1
aI1
aI1
aI1
aI1
aI1
aI1
aI1
aI1
aI1
aI1
aI1
aI1
aI1
aI1
aI1
aI1
aI1
aI1
aI1
aI1
aI1
aI1
aI1
aI1
aI1
aI1
aI1
aI1
aa(lp3068
I1
aI1
aI1
aI1
aI1
aI1
aI1
aI1
aI1
aI1
aI1
aI1
aI1
aI1
aI1
aI1
aI1
aI1
aI1
aI1
aI1
aI1
aI1
aI1
aI1
aI1
aI1
aI1
aI1
aI1
aI1
aI1
aI1
aI1
aI1
aI1
aI1
aI1
aI1
aI1
aI1
aI1
aI1
aI1
aI1
aI1
aI1
aI1
aI1
aI1
aa(lp3069
I1
aI1
aI1
aI1
aI1
aI1
aI1
aI1
aI1
aI1
aI1
aI1
aI1
aI1
aI1
aI1
aI1
aI1
aI1
aI1
aI1
aI1
aI1
aI1
aI1
aI1
aI1
aI1
aI1
aI1
aI1
aI1
aI1
aI1
aI1
aI1
aI1
aI1
aI1
aI1
aI1
aI1
aI1
aI1
aI1
aI1
aI1
aI1
aI1
aI1
aa(lp3070
I1
aI1
aI1
aI1
aI1
aI1
aI1
aI1
aI1
aI1
aI1
aI1
aI1
aI1
aI1
aI1
aI1
aI1
aI1
aI1
aI1
aI1
aI1
aI1
aI1
aI1
aI1
aI1
aI1
aI1
aI1
aI1
aI1
aI1
aI1
aI1
aI1
aI1
aI1
aI1
aI1
aI1
aI1
aI1
aI1
aI1
aI1
aI1
aI1
aI1
aa(lp3071
I1
aI1
aI1
aI1
aI1
aI1
aI1
aI1
aI1
aI1
aI1
aI1
aI1
aI1
aI1
aI1
aI1
aI1
aI1
aI1
aI1
aI1
aI1
aI1
aI1
aI1
aI1
aI1
aI1
aI1
aI1
aI1
aI1
aI1
aI1
aI1
aI1
aI1
aI1
aI1
aI1
aI1
aI1
aI1
aI1
aI1
aI1
aI1
aI1
aI1
aa(lp3072
I1
aI1
aI1
aI1
aI1
aI1
aI1
aI1
aI1
aI1
aI1
aI1
aI1
aI1
aI1
aI1
aI1
aI1
aI1
aI1
aI1
aI1
aI1
aI1
aI1
aI1
aI1
aI1
aI1
aI1
aI1
aI1
aI1
aI1
aI1
aI1
aI1
aI1
aI1
aI1
aI1
aI1
aI1
aI1
aI1
aI1
aI1
aI1
aI1
aI1
aa(lp3073
I1
aI1
aI1
aI1
aI1
aI1
aI1
aI1
aI1
aI1
aI1
aI1
aI1
aI1
aI1
aI1
aI1
aI1
aI1
aI1
aI1
aI1
aI0
aI1
aI1
aI1
aI1
aI1
aI1
aI1
aI1
aI1
aI1
aI1
aI1
aI1
aI1
aI1
aI1
aI1
aI1
aI1
aI1
aI1
aI1
aI1
aI1
aI1
aI1
aI1
aa(lp3074
I1
aI1
aI1
aI1
aI1
aI1
aI1
aI1
aI1
aI1
aI1
aI1
aI1
aI1
aI1
aI1
aI1
aI1
aI1
aI1
aI1
aI1
aI0
aI0
aI0
aI0
aI0
aI0
aI1
aI1
aI1
aI1
aI1
aI1
aI1
aI1
aI1
aI1
aI1
aI1
aI1
aI1
aI1
aI1
aI1
aI1
aI1
aI1
aI1
aI1
aa(lp3075
I1
aI1
aI1
aI1
aI1
aI1
aI1
aI1
aI1
aI1
aI1
aI1
aI1
aI1
aI1
aI1
aI1
aI1
aI1
aI1
aI1
aI1
aI0
aI0
aI0
aI0
aI0
aI0
aI1
aI1
aI1
aI1
aI1
aI1
aI1
aI1
aI1
aI1
aI1
aI1
aI1
aI1
aI1
aI1
aI1
aI1
aI1
aI1
aI1
aI1
aa(lp3076
I1
aI1
aI1
aI1
aI1
aI1
aI1
aI1
aI1
aI1
aI1
aI1
aI1
aI1
aI1
aI1
aI1
aI1
aI1
aI1
aI1
aI1
aI0
aI0
aI0
aI0
aI0
aI0
aI1
aI1
aI1
aI1
aI1
aI1
aI1
aI1
aI1
aI1
aI1
aI1
aI1
aI1
aI1
aI1
aI1
aI1
aI1
aI1
aI1
aI1
aa(lp3077
I1
aI1
aI1
aI1
aI1
aI1
aI1
aI1
aI1
aI1
aI1
aI1
aI1
aI1
aI1
aI1
aI1
aI1
aI1
aI1
aI1
aI1
aI0
aI0
aI0
aI0
aI0
aI0
aI1
aI1
aI1
aI1
aI1
aI1
aI1
aI1
aI1
aI1
aI1
aI1
aI1
aI1
aI1
aI1
aI1
aI1
aI1
aI1
aI1
aI1
aa(lp3078
I1
aI1
aI1
aI1
aI1
aI1
aI1
aI1
aI1
aI1
aI1
aI1
aI1
aI1
aI1
aI1
aI1
aI1
aI1
aI1
aI1
aI1
aI0
aI0
aI0
aI0
aI0
aI0
aI1
aI1
aI1
aI1
aI1
aI1
aI1
aI1
aI1
aI1
aI1
aI1
aI1
aI1
aI1
aI1
aI1
aI1
aI1
aI1
aI1
aI1
aa(lp3079
I1
aI1
aI1
aI1
aI1
aI1
aI1
aI1
aI1
aI1
aI1
aI1
aI1
aI1
aI1
aI1
aI1
aI1
aI1
aI1
aI1
aI1
aI0
aI0
aI0
aI0
aI0
aI0
aI1
aI1
aI1
aI1
aI1
aI1
aI1
aI1
aI1
aI1
aI1
aI1
aI1
aI1
aI1
aI1
aI1
aI1
aI1
aI1
aI1
aI1
aa(lp3080
I1
aI1
aI1
aI1
aI1
aI1
aI1
aI1
aI1
aI1
aI1
aI1
aI1
aI1
aI1
aI1
aI1
aI1
aI1
aI1
aI1
aI1
aI1
aI1
aI1
aI1
aI1
aI1
aI1
aI1
aI1
aI1
aI1
aI1
aI1
aI1
aI1
aI1
aI1
aI1
aI1
aI1
aI1
aI1
aI1
aI1
aI1
aI1
aI1
aI1
aa(lp3081
I1
aI1
aI1
aI1
aI1
aI1
aI1
aI1
aI1
aI1
aI1
aI1
aI1
aI1
aI1
aI1
aI1
aI1
aI1
aI1
aI1
aI1
aI1
aI1
aI1
aI1
aI1
aI1
aI1
aI1
aI1
aI1
aI1
aI1
aI1
aI1
aI1
aI1
aI1
aI1
aI1
aI1
aI1
aI1
aI1
aI1
aI1
aI1
aI1
aI1
aa(lp3082
I1
aI1
aI1
aI1
aI1
aI1
aI1
aI1
aI1
aI1
aI1
aI1
aI1
aI1
aI1
aI1
aI1
aI1
aI1
aI1
aI1
aI1
aI1
aI1
aI1
aI1
aI1
aI1
aI1
aI1
aI1
aI1
aI1
aI1
aI1
aI1
aI1
aI1
aI1
aI1
aI1
aI1
aI1
aI1
aI1
aI1
aI1
aI1
aI1
aI1
aa(lp3083
I1
aI1
aI1
aI1
aI1
aI1
aI1
aI1
aI1
aI1
aI1
aI1
aI1
aI1
aI1
aI1
aI1
aI1
aI1
aI1
aI1
aI1
aI1
aI1
aI1
aI1
aI1
aI1
aI1
aI1
aI1
aI1
aI1
aI1
aI1
aI1
aI1
aI1
aI1
aI1
aI1
aI1
aI1
aI1
aI1
aI1
aI1
aI1
aI1
aI1
aa(lp3084
I1
aI1
aI1
aI1
aI1
aI1
aI1
aI1
aI1
aI1
aI1
aI1
aI1
aI1
aI1
aI1
aI1
aI1
aI1
aI1
aI1
aI1
aI1
aI1
aI1
aI1
aI1
aI1
aI1
aI1
aI1
aI1
aI1
aI1
aI1
aI1
aI1
aI1
aI1
aI1
aI1
aI1
aI1
aI1
aI1
aI1
aI1
aI1
aI1
aI1
aa(lp3085
I1
aI1
aI1
aI1
aI1
aI1
aI1
aI1
aI1
aI1
aI1
aI1
aI1
aI1
aI1
aI1
aI1
aI1
aI1
aI1
aI1
aI1
aI1
aI1
aI1
aI1
aI1
aI1
aI1
aI1
aI1
aI1
aI1
aI1
aI1
aI1
aI1
aI1
aI1
aI1
aI1
aI1
aI1
aI1
aI1
aI1
aI1
aI1
aI1
aI1
aa(lp3086
I1
aI1
aI1
aI1
aI1
aI1
aI1
aI1
aI1
aI1
aI1
aI1
aI1
aI1
aI1
aI1
aI1
aI1
aI1
aI1
aI1
aI1
aI1
aI1
aI1
aI1
aI1
aI1
aI1
aI1
aI1
aI1
aI1
aI1
aI1
aI1
aI1
aI1
aI1
aI1
aI1
aI1
aI1
aI1
aI1
aI1
aI1
aI1
aI1
aI1
aa(lp3087
I1
aI1
aI1
aI1
aI1
aI1
aI1
aI1
aI1
aI1
aI1
aI1
aI1
aI1
aI1
aI1
aI1
aI1
aI1
aI1
aI1
aI1
aI1
aI1
aI1
aI1
aI1
aI1
aI1
aI1
aI1
aI1
aI1
aI1
aI1
aI1
aI1
aI1
aI1
aI1
aI1
aI1
aI1
aI1
aI1
aI1
aI1
aI1
aI1
aI1
aa(lp3088
I1
aI1
aI1
aI1
aI1
aI1
aI1
aI1
aI1
aI1
aI1
aI1
aI1
aI1
aI1
aI1
aI1
aI1
aI1
aI1
aI1
aI1
aI1
aI1
aI1
aI1
aI1
aI1
aI1
aI1
aI1
aI1
aI1
aI1
aI1
aI1
aI1
aI1
aI1
aI1
aI1
aI1
aI1
aI1
aI1
aI1
aI1
aI1
aI1
aI1
aa(lp3089
I1
aI1
aI1
aI1
aI1
aI1
aI1
aI1
aI1
aI1
aI1
aI1
aI1
aI1
aI1
aI1
aI1
aI1
aI1
aI1
aI1
aI1
aI1
aI1
aI1
aI1
aI1
aI1
aI1
aI1
aI1
aI1
aI1
aI1
aI1
aI1
aI1
aI1
aI1
aI1
aI1
aI1
aI1
aI1
aI1
aI1
aI1
aI1
aI1
aI1
aa(lp3090
I1
aI1
aI1
aI1
aI1
aI1
aI1
aI1
aI1
aI1
aI1
aI1
aI1
aI1
aI1
aI1
aI1
aI1
aI1
aI1
aI1
aI1
aI1
aI1
aI1
aI1
aI1
aI1
aI1
aI1
aI1
aI1
aI1
aI1
aI1
aI1
aI1
aI1
aI1
aI1
aI1
aI1
aI1
aI1
aI1
aI1
aI1
aI1
aI1
aI1
aa(lp3091
I1
aI1
aI1
aI1
aI1
aI1
aI1
aI1
aI1
aI1
aI1
aI1
aI1
aI1
aI1
aI1
aI1
aI1
aI1
aI1
aI1
aI1
aI1
aI1
aI1
aI1
aI1
aI1
aI1
aI1
aI1
aI1
aI1
aI1
aI1
aI1
aI1
aI1
aI1
aI1
aI1
aI1
aI1
aI1
aI1
aI1
aI1
aI1
aI1
aI1
aa(lp3092
I1
aI1
aI1
aI1
aI1
aI1
aI1
aI1
aI1
aI1
aI1
aI1
aI1
aI1
aI1
aI1
aI1
aI1
aI1
aI1
aI1
aI1
aI1
aI1
aI1
aI1
aI1
aI1
aI1
aI1
aI1
aI1
aI1
aI1
aI1
aI1
aI1
aI1
aI1
aI1
aI1
aI1
aI1
aI1
aI1
aI1
aI1
aI1
aI1
aI1
aa(lp3093
I1
aI1
aI1
aI1
aI1
aI1
aI1
aI1
aI1
aI1
aI1
aI1
aI1
aI1
aI1
aI1
aI1
aI1
aI1
aI1
aI1
aI1
aI1
aI1
aI1
aI1
aI1
aI1
aI1
aI1
aI1
aI1
aI1
aI1
aI1
aI1
aI1
aI1
aI1
aI1
aI1
aI1
aI1
aI1
aI1
aI1
aI1
aI1
aI1
aI1
aa(lp3094
I1
aI1
aI1
aI1
aI1
aI1
aI1
aI1
aI1
aI1
aI1
aI1
aI1
aI1
aI1
aI1
aI1
aI1
aI1
aI1
aI1
aI1
aI1
aI1
aI1
aI1
aI1
aI1
aI1
aI1
aI1
aI1
aI1
aI1
aI1
aI1
aI1
aI1
aI1
aI1
aI1
aI1
aI1
aI1
aI1
aI1
aI1
aI1
aI1
aI1
aa(lp3095
I1
aI1
aI1
aI1
aI1
aI1
aI1
aI1
aI1
aI1
aI1
aI1
aI1
aI1
aI1
aI1
aI1
aI1
aI1
aI1
aI1
aI1
aI1
aI1
aI1
aI1
aI1
aI1
aI1
aI1
aI1
aI1
aI1
aI1
aI1
aI1
aI1
aI1
aI1
aI1
aI1
aI1
aI1
aI1
aI1
aI1
aI1
aI1
aI1
aI1
aa(lp3096
I1
aI1
aI1
aI1
aI1
aI1
aI1
aI1
aI1
aI1
aI1
aI1
aI1
aI1
aI1
aI1
aI1
aI1
aI1
aI1
aI1
aI1
aI1
aI1
aI1
aI1
aI1
aI1
aI1
aI1
aI1
aI1
aI1
aI1
aI1
aI1
aI1
aI1
aI1
aI1
aI1
aI1
aI1
aI1
aI1
aI1
aI1
aI1
aI1
aI1
aa(lp3097
I1
aI1
aI1
aI1
aI1
aI1
aI1
aI1
aI1
aI1
aI1
aI1
aI1
aI1
aI1
aI1
aI1
aI1
aI1
aI1
aI1
aI1
aI1
aI1
aI1
aI1
aI1
aI1
aI1
aI1
aI1
aI1
aI1
aI1
aI1
aI1
aI1
aI1
aI1
aI1
aI1
aI1
aI1
aI1
aI1
aI1
aI1
aI1
aI1
aI1
aa(lp3098
I1
aI1
aI1
aI1
aI1
aI1
aI1
aI1
aI1
aI1
aI1
aI1
aI1
aI1
aI1
aI1
aI1
aI1
aI1
aI1
aI1
aI1
aI1
aI1
aI1
aI1
aI1
aI1
aI1
aI1
aI1
aI1
aI1
aI1
aI1
aI1
aI1
aI1
aI1
aI1
aI1
aI1
aI1
aI1
aI1
aI1
aI1
aI1
aI1
aI1
aa(lp3099
I1
aI1
aI1
aI1
aI1
aI1
aI1
aI1
aI1
aI1
aI1
aI1
aI1
aI1
aI1
aI1
aI1
aI1
aI1
aI1
aI1
aI1
aI1
aI1
aI1
aI1
aI1
aI1
aI1
aI1
aI1
aI1
aI1
aI1
aI1
aI1
aI1
aI1
aI1
aI1
aI1
aI1
aI1
aI1
aI1
aI1
aI1
aI1
aI1
aI1
aa(lp3100
I1
aI1
aI1
aI1
aI1
aI1
aI1
aI1
aI1
aI1
aI1
aI1
aI1
aI1
aI1
aI1
aI1
aI1
aI1
aI1
aI1
aI1
aI1
aI1
aI1
aI1
aI1
aI1
aI1
aI1
aI1
aI1
aI1
aI1
aI1
aI1
aI1
aI1
aI1
aI1
aI1
aI1
aI1
aI1
aI1
aI1
aI1
aI1
aI1
aI1
aa(lp3101
I1
aI1
aI1
aI1
aI1
aI1
aI1
aI1
aI1
aI1
aI1
aI1
aI1
aI1
aI1
aI1
aI1
aI1
aI1
aI1
aI1
aI1
aI1
aI1
aI1
aI1
aI1
aI1
aI1
aI1
aI1
aI1
aI1
aI1
aI1
aI1
aI1
aI1
aI1
aI1
aI1
aI1
aI1
aI1
aI1
aI1
aI1
aI1
aI1
aI1
aa(lp3102
I1
aI1
aI1
aI1
aI1
aI1
aI1
aI1
aI1
aI1
aI1
aI1
aI1
aI1
aI1
aI1
aI1
aI1
aI1
aI1
aI1
aI1
aI1
aI1
aI1
aI1
aI1
aI1
aI1
aI1
aI1
aI1
aI1
aI1
aI1
aI1
aI1
aI1
aI1
aI1
aI1
aI1
aI1
aI1
aI1
aI1
aI1
aI1
aI1
aI1
aa(lp3103
I1
aI1
aI1
aI1
aI1
aI1
aI1
aI1
aI1
aI1
aI1
aI1
aI1
aI1
aI1
aI1
aI1
aI1
aI1
aI1
aI1
aI1
aI1
aI1
aI1
aI1
aI1
aI1
aI1
aI1
aI1
aI1
aI1
aI1
aI1
aI1
aI1
aI1
aI1
aI1
aI1
aI1
aI1
aI1
aI1
aI1
aI1
aI1
aI1
aI1
aa(lp3104
I1
aI1
aI1
aI1
aI1
aI1
aI1
aI1
aI1
aI1
aI1
aI1
aI1
aI1
aI1
aI1
aI1
aI1
aI1
aI1
aI1
aI1
aI1
aI1
aI1
aI1
aI1
aI1
aI1
aI1
aI1
aI1
aI1
aI1
aI1
aI1
aI1
aI1
aI1
aI1
aI1
aI1
aI1
aI1
aI1
aI1
aI1
aI1
aI1
aI1
aa(lp3105
I1
aI1
aI1
aI1
aI1
aI1
aI1
aI1
aI1
aI1
aI1
aI1
aI1
aI1
aI1
aI1
aI1
aI1
aI1
aI1
aI1
aI1
aI1
aI1
aI1
aI1
aI1
aI1
aI1
aI1
aI1
aI1
aI1
aI1
aI1
aI1
aI1
aI1
aI1
aI1
aI1
aI1
aI1
aI1
aI1
aI1
aI1
aI1
aI1
aI1
aa(lp3106
I1
aI1
aI1
aI1
aI1
aI1
aI1
aI1
aI1
aI1
aI1
aI1
aI1
aI1
aI1
aI1
aI1
aI1
aI1
aI1
aI1
aI1
aI1
aI1
aI1
aI1
aI1
aI1
aI1
aI1
aI1
aI1
aI1
aI1
aI1
aI1
aI1
aI1
aI1
aI1
aI1
aI1
aI1
aI1
aI1
aI1
aI1
aI1
aI1
aI1
aa(lp3107
I1
aI1
aI1
aI1
aI1
aI1
aI1
aI1
aI1
aI1
aI1
aI1
aI1
aI1
aI1
aI1
aI1
aI1
aI1
aI1
aI1
aI1
aI1
aI1
aI1
aI1
aI1
aI1
aI1
aI1
aI1
aI1
aI1
aI1
aI1
aI1
aI1
aI1
aI1
aI1
aI1
aI1
aI1
aI1
aI1
aI1
aI1
aI1
aI1
aI1
aa(lp3108
I1
aI1
aI1
aI1
aI1
aI1
aI1
aI1
aI1
aI1
aI1
aI1
aI1
aI1
aI1
aI1
aI1
aI1
aI1
aI1
aI1
aI1
aI1
aI1
aI1
aI1
aI1
aI1
aI1
aI1
aI1
aI1
aI1
aI1
aI1
aI1
aI1
aI1
aI1
aI1
aI1
aI1
aI1
aI1
aI1
aI1
aI1
aI1
aI1
aI1
aa(lp3109
I1
aI1
aI1
aI1
aI1
aI1
aI1
aI1
aI1
aI1
aI1
aI1
aI1
aI1
aI1
aI1
aI1
aI1
aI1
aI1
aI1
aI1
aI1
aI1
aI1
aI1
aI1
aI1
aI1
aI1
aI1
aI1
aI1
aI1
aI1
aI1
aI1
aI1
aI1
aI1
aI1
aI1
aI1
aI1
aI1
aI1
aI1
aI1
aI1
aI1
aa(lp3110
I1
aI1
aI1
aI1
aI1
aI1
aI1
aI1
aI1
aI1
aI1
aI1
aI1
aI1
aI1
aI1
aI1
aI1
aI1
aI1
aI1
aI1
aI1
aI1
aI1
aI1
aI1
aI1
aI1
aI1
aI1
aI1
aI1
aI1
aI1
aI1
aI1
aI1
aI1
aI1
aI1
aI1
aI1
aI1
aI1
aI1
aI1
aI1
aI1
aI1
aa(lp3111
I1
aI1
aI1
aI1
aI1
aI1
aI1
aI1
aI1
aI1
aI1
aI1
aI1
aI1
aI1
aI1
aI1
aI1
aI1
aI1
aI1
aI1
aI1
aI1
aI1
aI1
aI1
aI1
aI1
aI1
aI1
aI1
aI1
aI1
aI1
aI1
aI1
aI1
aI1
aI1
aI1
aI1
aI1
aI1
aI1
aI1
aI1
aI1
aI1
aI1
aasS'rooms'
p3112
(dp3113
(I25
I16
tp3114
g182
s(I26
I14
tp3115
g182
s(I22
I13
tp3116
g182
s(I24
I17
tp3117
g182
s(I27
I15
tp3118
g182
s(I25
I12
tp3119
g182
s(I27
I17
tp3120
g182
s(I24
I13
tp3121
g182
s(I23
I12
tp3122
g182
s(I26
I16
tp3123
g182
s(I26
I15
tp3124
g182
s(I27
I14
tp3125
g182
s(I23
I17
tp3126
g182
s(I22
I16
tp3127
g182
s(I22
I14
tp3128
g182
s(I27
I16
tp3129
g182
s(I24
I14
tp3130
g182
s(I23
I15
tp3131
g182
s(I26
I17
tp3132
g182
s(I25
I15
tp3133
g182
s(I26
I12
tp3134
g182
s(I23
I16
tp3135
g182
s(I22
I17
tp3136
g182
s(I22
I15
tp3137
g182
s(I24
I15
tp3138
g182
s(I27
I13
tp3139
g182
s(I23
I14
tp3140
g182
s(I25
I14
tp3141
g182
s(I22
I11
tp3142
(iCode.Engine.DungeonGenerator
DungeonRoom
p3143
(dp3144
g184
I00
sg185
(lp3145
(I22
I11
tp3146
asg223
(lp3147
sg225
(lp3148
sg127
I2
sg227
Nsg229
I01
sg230
I00
sg231
I0
sg232
(lp3149
I22
aI11
asg234
(lp3150
sg2510
I0
sg2511
(lp3151
(iCode.Engine.Traps
Decoration
p3152
(dp3153
S'dungeonRoom'
p3154
NsS'shrineX'
p3155
I8
sS'wasDetected'
p3156
I00
sg440
I00
sg127
I2
sS'shrineY'
p3157
I0
sg10
I0
sS'lastUnitTouched'
p3158
NsS'activated'
p3159
I0
sS'layer'
p3160
I0
sS'source'
p3161
(I178
I93
tp3162
sS'isSolid'
p3163
I00
sS'backupActivated'
p3164
I0
sS'open'
p3165
(lp3166
I0
aI100
asbasg2513
(lp3167
sg2527
I00
sg2528
(iCode.Engine.DungeonGenerator
DungeonPiece
p3168
(dp3169
g128
(lp3170
(lp3171
I15
aasg2538
(lp3172
(lp3173
I0
aasg2546
I00
sbsg2546
I00
sbs(I26
I13
tp3174
g182
s(I25
I17
tp3175
g182
s(I22
I12
tp3176
g182
s(I24
I16
tp3177
g182
s(I27
I12
tp3178
g182
s(I25
I13
tp3179
g182
s(I24
I12
tp3180
g182
s(I23
I13
tp3181
g182
ssS'doors'
p3182
(dp3183
(I27
I14
tp3184
(lp3185
(I1
I0
tp3186
as(I23
I17
tp3187
(lp3188
(I0
I1
tp3189
as(I22
I12
tp3190
(lp3191
(I0
I-1
tp3192
as(I27
I18
tp3193
(lp3194
(I0
I-1
tp3195
as(I27
I17
tp3196
(lp3197
(I0
I1
tp3198
as(I28
I14
tp3199
(lp3200
(I-1
I0
tp3201
as(I22
I11
tp3202
(lp3203
(I0
I1
tp3204
as(I23
I18
tp3205
(lp3206
(I0
I-1
tp3207
assS'maze'
p3208
(lp3209
(lp3210
S'.'
p3211
ag3211
ag3211
ag3211
ag3211
ag3211
aS'#'
p3212
ag3212
ag3212
ag3211
ag3212
ag3211
ag3212
ag3211
ag3211
ag3211
ag3211
ag3211
ag3211
ag3211
ag3211
ag3211
ag3211
ag3211
ag3211
ag3211
ag3211
ag3211
ag3211
ag3211
ag3211
ag3212
ag3212
ag3211
ag3211
ag3211
ag3211
ag3211
ag3211
ag3211
ag3211
ag3211
ag3211
ag3211
ag3211
ag3211
ag3211
ag3211
ag3212
ag3211
aa(lp3213
g3211
ag3212
ag3212
ag3212
ag3211
ag3212
ag3212
ag3211
ag3211
ag3211
ag3211
ag3211
ag3212
ag3212
ag3212
ag3211
ag3212
ag3212
ag3211
ag3212
ag3211
ag3212
ag3211
ag3212
ag3212
ag3211
ag3212
ag3212
ag3212
ag3212
ag3211
ag3211
ag3212
ag3212
ag3212
ag3211
ag3212
ag3212
ag3212
ag3211
ag3212
ag3212
ag3212
ag3212
ag3211
ag3212
ag3212
ag3212
ag3212
ag3211
aa(lp3214
g3211
ag3211
aS'A'
p3215
ag3215
ag3215
ag3215
ag3215
ag3215
ag3212
ag3212
ag3211
ag3212
ag3215
ag3215
ag3215
ag3215
ag3215
ag3215
ag3211
ag3212
ag3211
ag3212
ag3215
ag3215
ag3215
ag3215
ag3215
ag3215
ag3211
ag3211
ag3211
ag3212
ag3215
ag3215
ag3215
ag3215
ag3215
ag3215
ag3212
ag3211
ag3211
ag3211
ag3215
ag3215
ag3215
ag3215
ag3215
ag3215
ag3212
ag3211
aa(lp3216
g3211
ag3212
ag3215
ag3215
ag3215
ag3215
ag3215
ag3215
ag3212
ag3212
ag3211
ag3212
ag3215
ag3215
ag3215
ag3215
ag3215
ag3215
ag3212
ag3212
ag3211
ag3212
ag3215
ag3215
ag3215
ag3215
ag3215
ag3215
ag3212
ag3212
ag3211
ag3212
ag3215
ag3215
ag3215
ag3215
ag3215
ag3215
ag3212
ag3212
ag3211
ag3212
ag3215
ag3215
ag3215
ag3215
ag3215
ag3215
ag3212
ag3211
aa(lp3217
g3211
ag3212
ag3215
ag3215
ag3215
ag3215
ag3215
ag3215
ag3212
ag3211
ag3211
ag3211
ag3215
ag3215
ag3215
ag3215
ag3215
ag3215
ag3212
ag3212
ag3212
ag3212
ag3215
ag3215
ag3215
ag3215
ag3215
ag3215
ag3212
ag3211
ag3211
ag3211
ag3215
ag3215
ag3215
ag3215
ag3215
ag3215
ag3211
ag3211
ag3211
ag3212
ag3215
ag3215
ag3215
ag3215
ag3215
ag3215
ag3211
ag3211
aa(lp3218
g3211
ag3211
ag3215
ag3215
ag3215
ag3215
ag3215
ag3215
ag3211
ag3211
ag3212
ag3212
ag3215
ag3215
ag3215
ag3215
ag3215
ag3215
ag3211
ag3211
ag3211
ag3212
ag3215
ag3215
ag3215
ag3215
ag3215
ag3215
ag3212
ag3211
ag3212
ag3212
ag3215
ag3215
ag3215
ag3215
ag3215
ag3215
ag3212
ag3212
ag3211
ag3211
ag3215
ag3215
ag3215
ag3215
ag3215
ag3215
ag3212
ag3211
aa(lp3219
g3211
ag3212
ag3215
ag3215
ag3215
ag3215
ag3215
ag3215
ag3212
ag3211
ag3211
ag3212
ag3215
ag3215
ag3215
ag3215
ag3215
ag3215
ag3212
ag3212
ag3211
ag3212
ag3215
ag3215
ag3215
ag3215
ag3215
ag3215
ag3211
ag3211
ag3212
ag3212
ag3215
ag3215
ag3215
ag3215
ag3215
ag3215
ag3212
ag3211
ag3211
ag3212
ag3215
ag3215
ag3215
ag3215
ag3215
ag3215
ag3212
ag3211
aa(lp3220
g3211
ag3212
ag3215
ag3215
ag3215
ag3215
ag3215
ag3215
ag3212
ag3211
ag3212
ag3212
ag3215
ag3215
ag3215
ag3215
ag3215
ag3215
ag3212
ag3212
ag3211
ag3211
ag3215
ag3215
ag3215
ag3215
ag3215
ag3215
ag3212
ag3211
ag3212
ag3211
ag3215
ag3215
ag3215
ag3215
ag3215
ag3215
ag3212
ag3212
ag3211
ag3212
ag3215
ag3215
ag3215
ag3215
ag3215
ag3215
ag3212
ag3211
aa(lp3221
g3211
ag3212
ag3212
ag3212
ag3211
ag3212
ag3212
ag3211
ag3212
ag3211
ag3211
ag3212
ag3211
ag3212
ag3212
ag3212
ag3211
ag3212
ag3212
ag3211
ag3211
ag3212
ag3212
ag3212
ag3212
ag3212
ag3212
ag3212
ag3211
ag3211
ag3212
ag3211
ag3212
ag3212
ag3212
ag3212
ag3211
ag3212
ag3211
ag3212
ag3211
ag3212
ag3211
ag3212
ag3212
ag3212
ag3211
ag3212
ag3211
ag3211
aa(lp3222
g3211
ag3212
ag3211
ag3211
ag3211
ag3212
ag3212
ag3211
ag3212
ag3212
ag3211
ag3212
ag3211
ag3212
ag3211
ag3212
ag3211
ag3212
ag3211
ag3211
ag3212
ag3212
ag3212
ag3212
ag3212
ag3212
ag3212
ag3212
ag3212
ag3211
ag3211
ag3211
ag3212
ag3211
ag3212
ag3212
ag3211
ag3211
ag3211
ag3211
ag3211
ag3211
ag3211
ag3211
ag3211
ag3212
ag3211
ag3212
ag3212
ag3211
aa(lp3223
g3211
ag3212
ag3211
ag3212
ag3211
ag3211
ag3211
ag3211
ag3211
ag3211
ag3211
ag3211
ag3211
ag3211
ag3211
ag3211
ag3211
ag3211
ag3211
ag3212
ag3212
ag3212
ag3212
ag3212
ag3212
ag3212
ag3212
ag3212
ag3212
ag3212
ag3212
ag3211
ag3211
ag3211
ag3211
ag3211
ag3211
ag3212
ag3211
ag3212
ag3212
ag3211
ag3212
ag3212
ag3211
ag3211
ag3211
ag3211
ag3211
ag3211
aa(lp3224
g3211
ag3212
ag3212
ag3212
ag3212
ag3211
ag3212
ag3212
ag3212
ag3212
ag3211
ag3212
ag3212
ag3212
ag3211
ag3212
ag3212
ag3211
ag3212
ag3212
ag3212
ag3212
ag3212
ag3212
ag3212
ag3212
ag3212
ag3212
ag3212
ag3212
ag3211
ag3211
ag3212
ag3212
ag3211
ag3212
ag3212
ag3212
ag3211
ag3211
ag3212
ag3211
ag3211
ag3212
ag3212
ag3211
ag3212
ag3212
ag3211
ag3212
aa(lp3225
g3211
ag3211
ag3215
ag3215
ag3215
ag3215
ag3215
ag3215
ag3211
ag3211
ag3211
ag3212
ag3215
ag3215
ag3215
ag3215
ag3215
ag3215
ag3212
ag3212
ag3212
ag3212
ag3215
ag3215
ag3215
ag3215
ag3215
ag3215
ag3212
ag3211
ag3211
ag3212
ag3215
ag3215
ag3215
ag3215
ag3215
ag3215
ag3211
ag3212
ag3212
ag3212
ag3215
ag3215
ag3215
ag3215
ag3215
ag3215
ag3212
ag3212
aa(lp3226
g3211
ag3212
ag3215
ag3215
ag3215
ag3215
ag3215
ag3215
ag3212
ag3212
ag3211
ag3211
ag3215
ag3215
ag3215
ag3215
ag3215
ag3215
ag3212
ag3212
ag3212
ag3212
ag3215
ag3215
ag3215
ag3215
ag3215
ag3215
ag3212
ag3211
ag3212
ag3212
ag3215
ag3215
ag3215
ag3215
ag3215
ag3215
ag3212
ag3212
ag3212
ag3212
ag3215
ag3215
ag3215
ag3215
ag3215
ag3215
ag3212
ag3212
aa(lp3227
g3211
ag3212
ag3215
ag3215
ag3215
ag3215
ag3215
ag3215
ag3212
ag3212
ag3211
ag3212
ag3215
ag3215
ag3215
ag3215
ag3215
ag3215
ag3212
ag3212
ag3212
ag3212
ag3215
ag3215
ag3215
ag3215
ag3215
ag3215
ag3211
ag3211
ag3211
ag3211
ag3215
ag3215
ag3215
ag3215
ag3215
ag3215
ag3212
ag3212
ag3212
ag3212
ag3215
ag3215
ag3215
ag3215
ag3215
ag3215
ag3212
ag3212
aa(lp3228
g3211
ag3211
ag3215
ag3215
ag3215
ag3215
ag3215
ag3215
ag3211
ag3211
ag3211
ag3212
ag3215
ag3215
ag3215
ag3215
ag3215
ag3215
ag3212
ag3212
ag3212
ag3212
ag3215
ag3215
ag3215
ag3215
ag3215
ag3215
ag3212
ag3211
ag3212
ag3212
ag3215
ag3215
ag3215
ag3215
ag3215
ag3215
ag3212
ag3212
ag3212
ag3212
ag3215
ag3215
ag3215
ag3215
ag3215
ag3215
ag3212
ag3212
aa(lp3229
g3211
ag3212
ag3215
ag3215
ag3215
ag3215
ag3215
ag3215
ag3212
ag3212
ag3211
ag3212
ag3215
ag3215
ag3215
ag3215
ag3215
ag3215
ag3212
ag3212
ag3212
ag3212
ag3215
ag3215
ag3215
ag3215
ag3215
ag3215
ag3212
ag3211
ag3211
ag3212
ag3215
ag3215
ag3215
ag3215
ag3215
ag3215
ag3212
ag3212
ag3212
ag3212
ag3215
ag3215
ag3215
ag3215
ag3215
ag3215
ag3212
ag3212
aa(lp3230
g3211
ag3212
ag3215
ag3215
ag3215
ag3215
ag3215
ag3215
ag3212
ag3212
ag3211
ag3212
ag3215
ag3215
ag3215
ag3215
ag3215
ag3215
ag3212
ag3212
ag3212
ag3212
ag3215
ag3215
ag3215
ag3215
ag3215
ag3215
ag3212
ag3212
ag3211
ag3212
ag3215
ag3215
ag3215
ag3215
ag3215
ag3215
ag3212
ag3212
ag3212
ag3212
ag3215
ag3215
ag3215
ag3215
ag3215
ag3215
ag3212
ag3212
aa(lp3231
g3211
ag3211
ag3212
ag3211
ag3212
ag3212
ag3211
ag3212
ag3212
ag3211
ag3211
ag3211
ag3212
ag3211
ag3212
ag3212
ag3212
ag3211
ag3212
ag3212
ag3212
ag3211
ag3212
ag3211
ag3212
ag3212
ag3212
ag3211
ag3212
ag3211
ag3211
ag3211
ag3212
ag3212
ag3211
ag3212
ag3212
ag3211
ag3212
ag3212
ag3212
ag3212
ag3212
ag3212
ag3212
ag3212
ag3212
ag3212
ag3212
ag3212
aa(lp3232
g3212
ag3211
ag3212
ag3211
ag3212
ag3211
ag3211
ag3211
ag3212
ag3212
ag3211
ag3212
ag3212
ag3211
ag3212
ag3211
ag3212
ag3211
ag3212
ag3212
ag3211
ag3211
ag3211
ag3211
ag3212
ag3211
ag3211
ag3211
ag3212
ag3212
ag3211
ag3212
ag3212
ag3211
ag3211
ag3211
ag3212
ag3211
ag3212
ag3212
ag3212
ag3212
ag3212
ag3212
ag3212
ag3212
ag3212
ag3212
ag3212
ag3212
aa(lp3233
g3211
ag3211
ag3211
ag3211
ag3211
ag3211
ag3212
ag3211
ag3211
ag3211
ag3211
ag3211
ag3211
ag3211
ag3211
ag3211
ag3211
ag3211
ag3211
ag3212
ag3212
ag3212
ag3212
ag3211
ag3212
ag3212
ag3212
ag3211
ag3212
ag3211
ag3211
ag3211
ag3211
ag3211
ag3212
ag3211
ag3211
ag3211
ag3211
ag3212
ag3212
ag3212
ag3212
ag3212
ag3212
ag3212
ag3212
ag3212
ag3212
ag3212
aa(lp3234
g3212
ag3212
ag3211
ag3212
ag3212
ag3211
ag3212
ag3212
ag3211
ag3212
ag3211
ag3212
ag3211
ag3212
ag3212
ag3211
ag3212
ag3212
ag3211
ag3211
ag3212
ag3211
ag3212
ag3211
ag3211
ag3212
ag3211
ag3211
ag3212
ag3211
ag3212
ag3212
ag3212
ag3212
ag3212
ag3212
ag3211
ag3212
ag3211
ag3211
ag3212
ag3212
ag3212
ag3212
ag3212
ag3212
ag3212
ag3212
ag3212
ag3212
aa(lp3235
g3211
ag3212
ag3215
ag3215
ag3215
ag3215
ag3215
ag3215
ag3211
ag3212
ag3212
ag3212
ag3215
ag3215
ag3215
ag3215
ag3215
ag3215
ag3212
ag3211
ag3211
ag3211
ag3212
ag3212
ag3211
ag3212
ag3212
ag3211
ag3211
ag3211
ag3211
ag3211
ag3215
ag3215
ag3215
ag3215
ag3215
ag3215
ag3212
ag3211
ag3211
ag3211
ag3215
ag3215
ag3215
ag3215
ag3215
ag3215
ag3212
ag3212
aa(lp3236
g3211
ag3212
ag3215
ag3215
ag3215
ag3215
ag3215
ag3215
ag3212
ag3212
ag3211
ag3212
ag3215
ag3215
ag3215
ag3215
ag3215
ag3215
ag3211
ag3211
ag3212
ag3211
ag3211
ag3211
ag3211
ag3211
ag3211
ag3211
ag3212
ag3212
ag3211
ag3212
ag3215
ag3215
ag3215
ag3215
ag3215
ag3215
ag3212
ag3211
ag3212
ag3212
ag3215
ag3215
ag3215
ag3215
ag3215
ag3215
ag3212
ag3212
aa(lp3237
g3211
ag3212
ag3215
ag3215
ag3215
ag3215
ag3215
ag3215
ag3212
ag3211
ag3211
ag3212
ag3215
ag3215
ag3215
ag3215
ag3215
ag3215
ag3212
ag3211
ag3212
ag3212
ag3212
ag3212
ag3212
ag3211
ag3212
ag3212
ag3212
ag3211
ag3211
ag3212
ag3215
ag3215
ag3215
ag3215
ag3215
ag3215
ag3211
ag3211
ag3211
ag3212
ag3215
ag3215
ag3215
ag3215
ag3215
ag3215
ag3212
ag3212
aa(lp3238
g3211
ag3211
ag3215
ag3215
ag3215
ag3215
ag3215
ag3215
ag3212
ag3212
ag3211
ag3211
ag3215
ag3215
ag3215
ag3215
ag3215
ag3215
ag3212
ag3211
ag3212
ag3211
ag3212
ag3211
ag3212
ag3211
ag3211
ag3211
ag3212
ag3212
ag3211
ag3211
ag3215
ag3215
ag3215
ag3215
ag3215
ag3215
ag3212
ag3212
ag3212
ag3212
ag3215
ag3215
ag3215
ag3215
ag3215
ag3215
ag3212
ag3212
aa(lp3239
g3211
ag3212
ag3215
ag3215
ag3215
ag3215
ag3215
ag3215
ag3212
ag3212
ag3211
ag3212
ag3215
ag3215
ag3215
ag3215
ag3215
ag3215
ag3212
ag3212
ag3212
ag3211
ag3211
ag3211
ag3211
ag3211
ag3212
ag3212
ag3212
ag3212
ag3212
ag3212
ag3215
ag3215
ag3215
ag3215
ag3215
ag3215
ag3212
ag3211
ag3212
ag3212
ag3215
ag3215
ag3215
ag3215
ag3215
ag3215
ag3212
ag3212
aa(lp3240
g3211
ag3212
ag3215
ag3215
ag3215
ag3215
ag3215
ag3215
ag3212
ag3211
ag3211
ag3212
ag3215
ag3215
ag3215
ag3215
ag3215
ag3215
ag3212
ag3211
ag3211
ag3211
ag3212
ag3212
ag3212
ag3211
ag3211
ag3211
ag3212
ag3211
ag3212
ag3212
ag3215
ag3215
ag3215
ag3215
ag3215
ag3215
ag3212
ag3211
ag3211
ag3211
ag3215
ag3215
ag3215
ag3215
ag3215
ag3215
ag3211
ag3212
aa(lp3241
g3211
ag3211
ag3212
ag3211
ag3212
ag3212
ag3211
ag3212
ag3212
ag3212
ag3211
ag3212
ag3211
ag3212
ag3212
ag3212
ag3212
ag3211
ag3212
ag3212
ag3212
ag3212
ag3212
ag3212
ag3211
ag3211
ag3212
ag3211
ag3211
ag3211
ag3211
ag3211
ag3212
ag3212
ag3211
ag3212
ag3212
ag3211
ag3212
ag3212
ag3211
ag3212
ag3212
ag3212
ag3211
ag3212
ag3212
ag3212
ag3211
ag3212
aa(lp3242
g3212
ag3211
ag3212
ag3211
ag3211
ag3211
ag3211
ag3211
ag3211
ag3211
ag3211
ag3211
ag3211
ag3211
ag3211
ag3211
ag3211
ag3211
ag3211
ag3211
ag3211
ag3211
ag3211
ag3211
ag3211
ag3212
ag3212
ag3211
ag3212
ag3212
ag3212
ag3211
ag3211
ag3211
ag3211
ag3211
ag3211
ag3211
ag3211
ag3211
ag3211
ag3212
ag3211
ag3212
ag3211
ag3211
ag3211
ag3212
ag3211
ag3211
aa(lp3243
g3211
ag3211
ag3211
ag3211
ag3212
ag3211
ag3212
ag3212
ag3211
ag3212
ag3211
ag3212
ag3211
ag3212
ag3211
ag3212
ag3212
ag3211
ag3212
ag3212
ag3212
ag3211
ag3212
ag3211
ag3212
ag3212
ag3211
ag3211
ag3211
ag3211
ag3212
ag3211
ag3212
ag3211
ag3212
ag3212
ag3211
ag3212
ag3211
ag3212
ag3211
ag3211
ag3211
ag3211
ag3211
ag3212
ag3211
ag3211
ag3211
ag3212
aa(lp3244
g3211
ag3212
ag3211
ag3212
ag3212
ag3211
ag3212
ag3212
ag3212
ag3212
ag3211
ag3212
ag3211
ag3212
ag3212
ag3212
ag3212
ag3212
ag3212
ag3212
ag3211
ag3211
ag3212
ag3211
ag3212
ag3212
ag3212
ag3212
ag3211
ag3212
ag3212
ag3211
ag3212
ag3212
ag3212
ag3212
ag3211
ag3212
ag3211
ag3212
ag3211
ag3212
ag3211
ag3212
ag3212
ag3212
ag3212
ag3211
ag3212
ag3212
aa(lp3245
g3211
ag3212
ag3215
ag3215
ag3215
ag3215
ag3215
ag3215
ag3211
ag3211
ag3211
ag3212
ag3215
ag3215
ag3215
ag3215
ag3215
ag3215
ag3211
ag3211
ag3211
ag3212
ag3215
ag3215
ag3215
ag3215
ag3215
ag3215
ag3211
ag3212
ag3212
ag3211
ag3215
ag3215
ag3215
ag3215
ag3215
ag3215
ag3212
ag3212
ag3211
ag3212
ag3215
ag3215
ag3215
ag3215
ag3215
ag3215
ag3212
ag3211
aa(lp3246
g3211
ag3212
ag3215
ag3215
ag3215
ag3215
ag3215
ag3215
ag3212
ag3212
ag3211
ag3212
ag3215
ag3215
ag3215
ag3215
ag3215
ag3215
ag3212
ag3211
ag3212
ag3212
ag3215
ag3215
ag3215
ag3215
ag3215
ag3215
ag3212
ag3212
ag3212
ag3212
ag3215
ag3215
ag3215
ag3215
ag3215
ag3215
ag3212
ag3211
ag3211
ag3212
ag3215
ag3215
ag3215
ag3215
ag3215
ag3215
ag3212
ag3211
aa(lp3247
g3211
ag3211
ag3215
ag3215
ag3215
ag3215
ag3215
ag3215
ag3212
ag3212
ag3212
ag3212
ag3215
ag3215
ag3215
ag3215
ag3215
ag3215
ag3212
ag3211
ag3212
ag3212
ag3215
ag3215
ag3215
ag3215
ag3215
ag3215
ag3212
ag3211
ag3212
ag3212
ag3215
ag3215
ag3215
ag3215
ag3215
ag3215
ag3211
ag3211
ag3212
ag3212
ag3215
ag3215
ag3215
ag3215
ag3215
ag3215
ag3212
ag3211
aa(lp3248
g3211
ag3212
ag3215
ag3215
ag3215
ag3215
ag3215
ag3215
ag3211
ag3211
ag3212
ag3212
ag3215
ag3215
ag3215
ag3215
ag3215
ag3215
ag3211
ag3211
ag3211
ag3211
ag3215
ag3215
ag3215
ag3215
ag3215
ag3215
ag3211
ag3211
ag3211
ag3211
ag3215
ag3215
ag3215
ag3215
ag3215
ag3215
ag3212
ag3211
ag3211
ag3211
ag3215
ag3215
ag3215
ag3215
ag3215
ag3215
ag3211
ag3211
aa(lp3249
g3211
ag3212
ag3215
ag3215
ag3215
ag3215
ag3215
ag3215
ag3212
ag3211
ag3211
ag3212
ag3215
ag3215
ag3215
ag3215
ag3215
ag3215
ag3212
ag3212
ag3211
ag3212
ag3215
ag3215
ag3215
ag3215
ag3215
ag3215
ag3212
ag3212
ag3211
ag3212
ag3215
ag3215
ag3215
ag3215
ag3215
ag3215
ag3212
ag3211
ag3212
ag3212
ag3215
ag3215
ag3215
ag3215
ag3215
ag3215
ag3212
ag3211
aa(lp3250
g3211
ag3211
ag3215
ag3215
ag3215
ag3215
ag3215
ag3215
ag3212
ag3211
ag3212
ag3212
ag3215
ag3215
ag3215
ag3215
ag3215
ag3215
ag3212
ag3211
ag3211
ag3212
ag3215
ag3215
ag3215
ag3215
ag3215
ag3215
ag3212
ag3211
ag3211
ag3212
ag3215
ag3215
ag3215
ag3215
ag3215
ag3215
ag3212
ag3211
ag3211
ag3212
ag3215
ag3215
ag3215
ag3215
ag3215
ag3215
ag3212
ag3211
aa(lp3251
g3211
ag3212
ag3212
ag3212
ag3211
ag3212
ag3212
ag3211
ag3211
ag3211
ag3212
ag3211
ag3212
ag3212
ag3211
ag3212
ag3212
ag3212
ag3212
ag3212
ag3211
ag3211
ag3212
ag3212
ag3212
ag3211
ag3212
ag3212
ag3211
ag3211
ag3212
ag3212
ag3211
ag3212
ag3212
ag3211
ag3212
ag3212
ag3212
ag3212
ag3212
ag3212
ag3212
ag3212
ag3212
ag3211
ag3212
ag3212
ag3211
ag3211
aa(lp3252
g3211
ag3211
ag3212
ag3212
ag3211
ag3212
ag3212
ag3212
ag3212
ag3211
ag3212
ag3211
ag3212
ag3211
ag3211
ag3211
ag3211
ag3211
ag3211
ag3211
ag3211
ag3212
ag3212
ag3211
ag3211
ag3211
ag3211
ag3212
ag3211
ag3212
ag3212
ag3211
ag3211
ag3211
ag3212
ag3211
ag3212
ag3211
ag3211
ag3211
ag3211
ag3211
ag3211
ag3211
ag3211
ag3211
ag3211
ag3211
ag3211
ag3212
aa(lp3253
g3212
ag3211
ag3211
ag3211
ag3211
ag3211
ag3212
ag3212
ag3211
ag3211
ag3211
ag3211
ag3211
ag3211
ag3212
ag3211
ag3212
ag3212
ag3211
ag3212
ag3211
ag3211
ag3211
ag3211
ag3212
ag3212
ag3211
ag3211
ag3211
ag3211
ag3211
ag3211
ag3212
ag3211
ag3211
ag3211
ag3211
ag3211
ag3212
ag3211
ag3212
ag3212
ag3211
ag3212
ag3212
ag3211
ag3212
ag3211
ag3212
ag3212
aa(lp3254
g3211
ag3211
ag3212
ag3212
ag3211
ag3212
ag3212
ag3211
ag3211
ag3212
ag3212
ag3211
ag3212
ag3211
ag3212
ag3212
ag3212
ag3211
ag3211
ag3212
ag3212
ag3211
ag3212
ag3212
ag3212
ag3212
ag3211
ag3212
ag3211
ag3212
ag3211
ag3212
ag3212
ag3212
ag3211
ag3212
ag3212
ag3211
ag3212
ag3211
ag3212
ag3212
ag3212
ag3212
ag3212
ag3211
ag3212
ag3212
ag3212
ag3212
aa(lp3255
g3212
ag3211
ag3215
ag3215
ag3215
ag3215
ag3215
ag3215
ag3212
ag3212
ag3212
ag3212
ag3215
ag3215
ag3215
ag3215
ag3215
ag3215
ag3212
ag3212
ag3212
ag3211
ag3215
ag3215
ag3215
ag3215
ag3215
ag3215
ag3212
ag3212
ag3211
ag3211
ag3215
ag3215
ag3215
ag3215
ag3215
ag3215
ag3212
ag3211
ag3211
ag3212
ag3215
ag3215
ag3215
ag3215
ag3215
ag3215
ag3212
ag3212
aa(lp3256
g3212
ag3212
ag3215
ag3215
ag3215
ag3215
ag3215
ag3215
ag3212
ag3211
ag3212
ag3212
ag3215
ag3215
ag3215
ag3215
ag3215
ag3215
ag3212
ag3211
ag3212
ag3212
ag3215
ag3215
ag3215
ag3215
ag3215
ag3215
ag3212
ag3211
ag3211
ag3212
ag3215
ag3215
ag3215
ag3215
ag3215
ag3215
ag3212
ag3212
ag3211
ag3211
ag3215
ag3215
ag3215
ag3215
ag3215
ag3215
ag3212
ag3212
aa(lp3257
g3212
ag3212
ag3215
ag3215
ag3215
ag3215
ag3215
ag3215
ag3211
ag3211
ag3211
ag3212
ag3215
ag3215
ag3215
ag3215
ag3215
ag3215
ag3212
ag3211
ag3211
ag3212
ag3215
ag3215
ag3215
ag3215
ag3215
ag3215
ag3211
ag3211
ag3212
ag3212
ag3215
ag3215
ag3215
ag3215
ag3215
ag3215
ag3211
ag3211
ag3211
ag3212
ag3215
ag3215
ag3215
ag3215
ag3215
ag3215
ag3212
ag3212
aa(lp3258
g3212
ag3212
ag3215
ag3215
ag3215
ag3215
ag3215
ag3215
ag3212
ag3212
ag3211
ag3211
ag3215
ag3215
ag3215
ag3215
ag3215
ag3215
ag3211
ag3211
ag3212
ag3212
ag3215
ag3215
ag3215
ag3215
ag3215
ag3215
ag3212
ag3211
ag3211
ag3211
ag3215
ag3215
ag3215
ag3215
ag3215
ag3215
ag3212
ag3212
ag3211
ag3212
ag3215
ag3215
ag3215
ag3215
ag3215
ag3215
ag3212
ag3212
aa(lp3259
g3212
ag3212
ag3215
ag3215
ag3215
ag3215
ag3215
ag3215
ag3212
ag3211
ag3211
ag3212
ag3215
ag3215
ag3215
ag3215
ag3215
ag3215
ag3212
ag3211
ag3212
ag3212
ag3215
ag3215
ag3215
ag3215
ag3215
ag3215
ag3212
ag3212
ag3211
ag3212
ag3215
ag3215
ag3215
ag3215
ag3215
ag3215
ag3212
ag3211
ag3211
ag3211
ag3215
ag3215
ag3215
ag3215
ag3215
ag3215
ag3212
ag3212
aa(lp3260
g3212
ag3212
ag3215
ag3215
ag3215
ag3215
ag3215
ag3215
ag3212
ag3212
ag3211
ag3212
ag3215
ag3215
ag3215
ag3215
ag3215
ag3215
ag3212
ag3211
ag3211
ag3212
ag3215
ag3215
ag3215
ag3215
ag3215
ag3215
ag3211
ag3211
ag3211
ag3212
ag3215
ag3215
ag3215
ag3215
ag3215
ag3215
ag3211
ag3211
ag3212
ag3212
ag3215
ag3215
ag3215
ag3215
ag3215
ag3215
ag3212
ag3212
aa(lp3261
g3212
ag3212
ag3212
ag3212
ag3212
ag3212
ag3212
ag3211
ag3211
ag3211
ag3211
ag3212
ag3212
ag3212
ag3211
ag3212
ag3212
ag3211
ag3212
ag3212
ag3211
ag3212
ag3211
ag3212
ag3212
ag3211
ag3212
ag3212
ag3212
ag3211
ag3212
ag3212
ag3212
ag3212
ag3211
ag3212
ag3212
ag3212
ag3212
ag3211
ag3211
ag3211
ag3212
ag3212
ag3212
ag3211
ag3212
ag3212
ag3211
ag3212
aa(lp3262
g3212
ag3212
ag3212
ag3212
ag3212
ag3212
ag3212
ag3212
ag3211
ag3212
ag3211
ag3211
ag3211
ag3211
ag3211
ag3211
ag3211
ag3211
ag3211
ag3211
ag3211
ag3211
ag3211
ag3211
ag3211
ag3211
ag3211
ag3211
ag3211
ag3211
ag3211
ag3211
ag3211
ag3211
ag3211
ag3211
ag3211
ag3211
ag3212
ag3211
ag3212
ag3211
ag3211
ag3211
ag3211
ag3211
ag3211
ag3211
ag3211
ag3211
aasS'roadGrid'
p3263
(iCode.Engine.DungeonGenerator
RoadStruct
p3264
(dp3265
g70
(lp3266
(lp3267
I0
aI0
aI0
aI0
aI0
aI0
aI0
aI0
aI0
aI0
aI0
aI0
aI0
aI0
aI0
aI0
aI0
aI0
aI0
aI0
aI0
aI0
aI0
aI0
aI0
aI0
aI0
aI0
aI0
aI0
aI0
aI0
aI0
aI0
aI0
aI0
aI0
aI0
aI0
aI0
aI0
aI0
aI0
aI0
aI0
aI0
aI0
aI0
aI0
aI0
aa(lp3268
I0
aI0
aI0
aI0
aI0
aI0
aI0
aI0
aI0
aI0
aI0
aI0
aI0
aI0
aI0
aI0
aI0
aI0
aI0
aI0
aI0
aI0
aI0
aI0
aI0
aI0
aI0
aI0
aI0
aI0
aI0
aI0
aI0
aI0
aI0
aI0
aI0
aI0
aI0
aI0
aI0
aI0
aI0
aI0
aI0
aI0
aI0
aI0
aI0
aI0
aa(lp3269
I0
aI0
aI0
aI0
aI0
aI0
aI0
aI0
aI0
aI0
aI0
aI0
aI0
aI0
aI0
aI0
aI0
aI0
aI0
aI0
aI0
aI0
aI0
aI0
aI0
aI0
aI0
aI0
aI0
aI0
aI0
aI0
aI0
aI0
aI0
aI0
aI0
aI0
aI0
aI0
aI0
aI0
aI0
aI0
aI0
aI0
aI0
aI0
aI0
aI0
aa(lp3270
I0
aI0
aI0
aI0
aI0
aI0
aI0
aI0
aI0
aI0
aI0
aI0
aI0
aI0
aI0
aI0
aI0
aI0
aI0
aI0
aI0
aI0
aI0
aI0
aI0
aI0
aI0
aI0
aI0
aI0
aI0
aI0
aI0
aI0
aI0
aI0
aI0
aI0
aI0
aI0
aI0
aI0
aI0
aI0
aI0
aI0
aI0
aI0
aI0
aI0
aa(lp3271
I0
aI0
aI0
aI0
aI0
aI0
aI0
aI0
aI0
aI0
aI0
aI0
aI0
aI0
aI0
aI0
aI0
aI0
aI0
aI0
aI0
aI0
aI0
aI0
aI0
aI0
aI0
aI0
aI0
aI0
aI0
aI0
aI0
aI0
aI0
aI0
aI0
aI0
aI0
aI0
aI0
aI0
aI0
aI0
aI0
aI0
aI0
aI0
aI0
aI0
aa(lp3272
I0
aI0
aI0
aI0
aI0
aI0
aI0
aI0
aI0
aI0
aI0
aI0
aI0
aI0
aI0
aI0
aI0
aI0
aI0
aI0
aI0
aI0
aI0
aI0
aI0
aI0
aI0
aI0
aI0
aI0
aI0
aI0
aI0
aI0
aI0
aI0
aI0
aI0
aI0
aI0
aI0
aI0
aI0
aI0
aI0
aI0
aI0
aI0
aI0
aI0
aa(lp3273
I0
aI0
aI0
aI0
aI0
aI0
aI0
aI0
aI0
aI0
aI0
aI0
aI0
aI0
aI0
aI0
aI0
aI0
aI0
aI0
aI0
aI0
aI0
aI0
aI0
aI0
aI0
aI0
aI0
aI0
aI0
aI0
aI0
aI0
aI0
aI0
aI0
aI0
aI0
aI0
aI0
aI0
aI0
aI0
aI0
aI0
aI0
aI0
aI0
aI0
aa(lp3274
I0
aI0
aI0
aI0
aI0
aI0
aI0
aI0
aI0
aI0
aI0
aI0
aI0
aI0
aI0
aI0
aI0
aI0
aI0
aI0
aI0
aI0
aI0
aI0
aI0
aI0
aI0
aI0
aI0
aI0
aI0
aI0
aI0
aI0
aI0
aI0
aI0
aI0
aI0
aI0
aI0
aI0
aI0
aI0
aI0
aI0
aI0
aI0
aI0
aI0
aa(lp3275
I0
aI0
aI0
aI0
aI0
aI0
aI0
aI0
aI0
aI0
aI0
aI0
aI0
aI0
aI0
aI0
aI0
aI0
aI0
aI0
aI0
aI0
aI0
aI0
aI0
aI0
aI0
aI0
aI0
aI0
aI0
aI0
aI0
aI0
aI0
aI0
aI0
aI0
aI0
aI0
aI0
aI0
aI0
aI0
aI0
aI0
aI0
aI0
aI0
aI0
aa(lp3276
I0
aI0
aI0
aI0
aI0
aI0
aI0
aI0
aI0
aI0
aI0
aI0
aI0
aI0
aI0
aI0
aI0
aI0
aI0
aI0
aI0
aI0
aI0
aI0
aI0
aI0
aI0
aI0
aI0
aI0
aI0
aI0
aI0
aI0
aI0
aI0
aI0
aI0
aI0
aI0
aI0
aI0
aI0
aI0
aI0
aI0
aI0
aI0
aI0
aI0
aa(lp3277
I0
aI0
aI0
aI0
aI0
aI0
aI0
aI0
aI0
aI0
aI0
aI0
aI0
aI0
aI0
aI0
aI0
aI0
aI0
aI0
aI0
aI0
aI0
aI0
aI0
aI0
aI0
aI0
aI0
aI0
aI0
aI0
aI0
aI0
aI0
aI0
aI0
aI0
aI0
aI0
aI0
aI0
aI0
aI0
aI0
aI0
aI0
aI0
aI0
aI0
aa(lp3278
I0
aI0
aI0
aI0
aI0
aI0
aI0
aI0
aI0
aI0
aI0
aI0
aI0
aI0
aI0
aI0
aI0
aI0
aI0
aI0
aI0
aI0
aI0
aI0
aI0
aI0
aI0
aI0
aI0
aI0
aI0
aI0
aI0
aI0
aI0
aI0
aI0
aI0
aI0
aI0
aI0
aI0
aI0
aI0
aI0
aI0
aI0
aI0
aI0
aI0
aa(lp3279
I0
aI0
aI0
aI0
aI0
aI0
aI0
aI0
aI0
aI0
aI0
aI0
aI0
aI0
aI0
aI0
aI0
aI0
aI0
aI0
aI0
aI0
aI0
aI0
aI0
aI0
aI0
aI0
aI0
aI0
aI0
aI0
aI0
aI0
aI0
aI0
aI0
aI0
aI0
aI0
aI0
aI0
aI0
aI0
aI0
aI0
aI0
aI0
aI0
aI0
aa(lp3280
I0
aI0
aI0
aI0
aI0
aI0
aI0
aI0
aI0
aI0
aI0
aI0
aI0
aI0
aI0
aI0
aI0
aI0
aI0
aI0
aI0
aI0
aI0
aI0
aI0
aI0
aI0
aI0
aI0
aI0
aI0
aI0
aI0
aI0
aI0
aI0
aI0
aI0
aI0
aI0
aI0
aI0
aI0
aI0
aI0
aI0
aI0
aI0
aI0
aI0
aa(lp3281
I0
aI0
aI0
aI0
aI0
aI0
aI0
aI0
aI0
aI0
aI0
aI0
aI0
aI0
aI0
aI0
aI0
aI0
aI0
aI0
aI0
aI0
aI0
aI0
aI0
aI0
aI0
aI0
aI0
aI0
aI0
aI0
aI0
aI0
aI0
aI0
aI0
aI0
aI0
aI0
aI0
aI0
aI0
aI0
aI0
aI0
aI0
aI0
aI0
aI0
aa(lp3282
I0
aI0
aI0
aI0
aI0
aI0
aI0
aI0
aI0
aI0
aI0
aI0
aI0
aI0
aI0
aI0
aI0
aI0
aI0
aI0
aI0
aI0
aI0
aI0
aI0
aI0
aI0
aI0
aI0
aI0
aI0
aI0
aI0
aI0
aI0
aI0
aI0
aI0
aI0
aI0
aI0
aI0
aI0
aI0
aI0
aI0
aI0
aI0
aI0
aI0
aa(lp3283
I0
aI0
aI0
aI0
aI0
aI0
aI0
aI0
aI0
aI0
aI0
aI0
aI0
aI0
aI0
aI0
aI0
aI0
aI0
aI0
aI0
aI0
aI0
aI0
aI0
aI0
aI0
aI0
aI0
aI0
aI0
aI0
aI0
aI0
aI0
aI0
aI0
aI0
aI0
aI0
aI0
aI0
aI0
aI0
aI0
aI0
aI0
aI0
aI0
aI0
aa(lp3284
I0
aI0
aI0
aI0
aI0
aI0
aI0
aI0
aI0
aI0
aI0
aI0
aI0
aI0
aI0
aI0
aI0
aI0
aI0
aI0
aI0
aI0
aI0
aI0
aI0
aI0
aI0
aI0
aI0
aI0
aI0
aI0
aI0
aI0
aI0
aI0
aI0
aI0
aI0
aI0
aI0
aI0
aI0
aI0
aI0
aI0
aI0
aI0
aI0
aI0
aa(lp3285
I0
aI0
aI0
aI0
aI0
aI0
aI0
aI0
aI0
aI0
aI0
aI0
aI0
aI0
aI0
aI0
aI0
aI0
aI0
aI0
aI0
aI0
aI0
aI0
aI0
aI0
aI0
aI0
aI0
aI0
aI0
aI0
aI0
aI0
aI0
aI0
aI0
aI0
aI0
aI0
aI0
aI0
aI0
aI0
aI0
aI0
aI0
aI0
aI0
aI0
aa(lp3286
I0
aI0
aI0
aI0
aI0
aI0
aI0
aI0
aI0
aI0
aI0
aI0
aI0
aI0
aI0
aI0
aI0
aI0
aI0
aI0
aI0
aI0
aI0
aI0
aI0
aI0
aI0
aI0
aI0
aI0
aI0
aI0
aI0
aI0
aI0
aI0
aI0
aI0
aI0
aI0
aI0
aI0
aI0
aI0
aI0
aI0
aI0
aI0
aI0
aI0
aa(lp3287
I0
aI0
aI0
aI0
aI0
aI0
aI0
aI0
aI0
aI0
aI0
aI0
aI0
aI0
aI0
aI0
aI0
aI0
aI0
aI0
aI0
aI0
aI0
aI0
aI0
aI0
aI0
aI0
aI0
aI0
aI0
aI0
aI0
aI0
aI0
aI0
aI0
aI0
aI0
aI0
aI0
aI0
aI0
aI0
aI0
aI0
aI0
aI0
aI0
aI0
aa(lp3288
I0
aI0
aI0
aI0
aI0
aI0
aI0
aI0
aI0
aI0
aI0
aI0
aI0
aI0
aI0
aI0
aI0
aI0
aI0
aI0
aI0
aI0
aI0
aI0
aI0
aI0
aI0
aI0
aI0
aI0
aI0
aI0
aI0
aI0
aI0
aI0
aI0
aI0
aI0
aI0
aI0
aI0
aI0
aI0
aI0
aI0
aI0
aI0
aI0
aI0
aa(lp3289
I0
aI0
aI0
aI0
aI0
aI0
aI0
aI0
aI0
aI0
aI0
aI0
aI0
aI0
aI0
aI0
aI0
aI0
aI0
aI0
aI0
aI0
aI0
aI0
aI0
aI0
aI0
aI0
aI0
aI0
aI0
aI0
aI0
aI0
aI0
aI0
aI0
aI0
aI0
aI0
aI0
aI0
aI0
aI0
aI0
aI0
aI0
aI0
aI0
aI0
aa(lp3290
I0
aI0
aI0
aI0
aI0
aI0
aI0
aI0
aI0
aI0
aI0
aI0
aI0
aI0
aI0
aI0
aI0
aI0
aI0
aI0
aI0
aI0
aI0
aI0
aI0
aI0
aI0
aI0
aI0
aI0
aI0
aI0
aI0
aI0
aI0
aI0
aI0
aI0
aI0
aI0
aI0
aI0
aI0
aI0
aI0
aI0
aI0
aI0
aI0
aI0
aa(lp3291
I0
aI0
aI0
aI0
aI0
aI0
aI0
aI0
aI0
aI0
aI0
aI0
aI0
aI0
aI0
aI0
aI0
aI0
aI0
aI0
aI0
aI0
aI0
aI0
aI0
aI0
aI0
aI0
aI0
aI0
aI0
aI0
aI0
aI0
aI0
aI0
aI0
aI0
aI0
aI0
aI0
aI0
aI0
aI0
aI0
aI0
aI0
aI0
aI0
aI0
aa(lp3292
I0
aI0
aI0
aI0
aI0
aI0
aI0
aI0
aI0
aI0
aI0
aI0
aI0
aI0
aI0
aI0
aI0
aI0
aI0
aI0
aI0
aI0
aI0
aI0
aI0
aI0
aI0
aI0
aI0
aI0
aI0
aI0
aI0
aI0
aI0
aI0
aI0
aI0
aI0
aI0
aI0
aI0
aI0
aI0
aI0
aI0
aI0
aI0
aI0
aI0
aa(lp3293
I0
aI0
aI0
aI0
aI0
aI0
aI0
aI0
aI0
aI0
aI0
aI0
aI0
aI0
aI0
aI0
aI0
aI0
aI0
aI0
aI0
aI0
aI0
aI0
aI0
aI0
aI0
aI0
aI0
aI0
aI0
aI0
aI0
aI0
aI0
aI0
aI0
aI0
aI0
aI0
aI0
aI0
aI0
aI0
aI0
aI0
aI0
aI0
aI0
aI0
aa(lp3294
I0
aI0
aI0
aI0
aI0
aI0
aI0
aI0
aI0
aI0
aI0
aI0
aI0
aI0
aI0
aI0
aI0
aI0
aI0
aI0
aI0
aI0
aI0
aI0
aI0
aI0
aI0
aI0
aI0
aI0
aI0
aI0
aI0
aI0
aI0
aI0
aI0
aI0
aI0
aI0
aI0
aI0
aI0
aI0
aI0
aI0
aI0
aI0
aI0
aI0
aa(lp3295
I0
aI0
aI0
aI0
aI0
aI0
aI0
aI0
aI0
aI0
aI0
aI0
aI0
aI0
aI0
aI0
aI0
aI0
aI0
aI0
aI0
aI0
aI0
aI0
aI0
aI0
aI0
aI0
aI0
aI0
aI0
aI0
aI0
aI0
aI0
aI0
aI0
aI0
aI0
aI0
aI0
aI0
aI0
aI0
aI0
aI0
aI0
aI0
aI0
aI0
aa(lp3296
I0
aI0
aI0
aI0
aI0
aI0
aI0
aI0
aI0
aI0
aI0
aI0
aI0
aI0
aI0
aI0
aI0
aI0
aI0
aI0
aI0
aI0
aI0
aI0
aI0
aI0
aI0
aI0
aI0
aI0
aI0
aI0
aI0
aI0
aI0
aI0
aI0
aI0
aI0
aI0
aI0
aI0
aI0
aI0
aI0
aI0
aI0
aI0
aI0
aI0
aa(lp3297
I0
aI0
aI0
aI0
aI0
aI0
aI0
aI0
aI0
aI0
aI0
aI0
aI0
aI0
aI0
aI0
aI0
aI0
aI0
aI0
aI0
aI0
aI0
aI0
aI0
aI0
aI0
aI0
aI0
aI0
aI0
aI0
aI0
aI0
aI0
aI0
aI0
aI0
aI0
aI0
aI0
aI0
aI0
aI0
aI0
aI0
aI0
aI0
aI0
aI0
aa(lp3298
I0
aI0
aI0
aI0
aI0
aI0
aI0
aI0
aI0
aI0
aI0
aI0
aI0
aI0
aI0
aI0
aI0
aI0
aI0
aI0
aI0
aI0
aI0
aI0
aI0
aI0
aI0
aI0
aI0
aI0
aI0
aI0
aI0
aI0
aI0
aI0
aI0
aI0
aI0
aI0
aI0
aI0
aI0
aI0
aI0
aI0
aI0
aI0
aI0
aI0
aa(lp3299
I0
aI0
aI0
aI0
aI0
aI0
aI0
aI0
aI0
aI0
aI0
aI0
aI0
aI0
aI0
aI0
aI0
aI0
aI0
aI0
aI0
aI0
aI0
aI0
aI0
aI0
aI0
aI0
aI0
aI0
aI0
aI0
aI0
aI0
aI0
aI0
aI0
aI0
aI0
aI0
aI0
aI0
aI0
aI0
aI0
aI0
aI0
aI0
aI0
aI0
aa(lp3300
I0
aI0
aI0
aI0
aI0
aI0
aI0
aI0
aI0
aI0
aI0
aI0
aI0
aI0
aI0
aI0
aI0
aI0
aI0
aI0
aI0
aI0
aI0
aI0
aI0
aI0
aI0
aI0
aI0
aI0
aI0
aI0
aI0
aI0
aI0
aI0
aI0
aI0
aI0
aI0
aI0
aI0
aI0
aI0
aI0
aI0
aI0
aI0
aI0
aI0
aa(lp3301
I0
aI0
aI0
aI0
aI0
aI0
aI0
aI0
aI0
aI0
aI0
aI0
aI0
aI0
aI0
aI0
aI0
aI0
aI0
aI0
aI0
aI0
aI0
aI0
aI0
aI0
aI0
aI0
aI0
aI0
aI0
aI0
aI0
aI0
aI0
aI0
aI0
aI0
aI0
aI0
aI0
aI0
aI0
aI0
aI0
aI0
aI0
aI0
aI0
aI0
aa(lp3302
I0
aI0
aI0
aI0
aI0
aI0
aI0
aI0
aI0
aI0
aI0
aI0
aI0
aI0
aI0
aI0
aI0
aI0
aI0
aI0
aI0
aI0
aI0
aI0
aI0
aI0
aI0
aI0
aI0
aI0
aI0
aI0
aI0
aI0
aI0
aI0
aI0
aI0
aI0
aI0
aI0
aI0
aI0
aI0
aI0
aI0
aI0
aI0
aI0
aI0
aa(lp3303
I0
aI0
aI0
aI0
aI0
aI0
aI0
aI0
aI0
aI0
aI0
aI0
aI0
aI0
aI0
aI0
aI0
aI0
aI0
aI0
aI0
aI0
aI0
aI0
aI0
aI0
aI0
aI0
aI0
aI0
aI0
aI0
aI0
aI0
aI0
aI0
aI0
aI0
aI0
aI0
aI0
aI0
aI0
aI0
aI0
aI0
aI0
aI0
aI0
aI0
aa(lp3304
I0
aI0
aI0
aI0
aI0
aI0
aI0
aI0
aI0
aI0
aI0
aI0
aI0
aI0
aI0
aI0
aI0
aI0
aI0
aI0
aI0
aI0
aI0
aI0
aI0
aI0
aI0
aI0
aI0
aI0
aI0
aI0
aI0
aI0
aI0
aI0
aI0
aI0
aI0
aI0
aI0
aI0
aI0
aI0
aI0
aI0
aI0
aI0
aI0
aI0
aa(lp3305
I0
aI0
aI0
aI0
aI0
aI0
aI0
aI0
aI0
aI0
aI0
aI0
aI0
aI0
aI0
aI0
aI0
aI0
aI0
aI0
aI0
aI0
aI0
aI0
aI0
aI0
aI0
aI0
aI0
aI0
aI0
aI0
aI0
aI0
aI0
aI0
aI0
aI0
aI0
aI0
aI0
aI0
aI0
aI0
aI0
aI0
aI0
aI0
aI0
aI0
aa(lp3306
I0
aI0
aI0
aI0
aI0
aI0
aI0
aI0
aI0
aI0
aI0
aI0
aI0
aI0
aI0
aI0
aI0
aI0
aI0
aI0
aI0
aI0
aI0
aI0
aI0
aI0
aI0
aI0
aI0
aI0
aI0
aI0
aI0
aI0
aI0
aI0
aI0
aI0
aI0
aI0
aI0
aI0
aI0
aI0
aI0
aI0
aI0
aI0
aI0
aI0
aa(lp3307
I0
aI0
aI0
aI0
aI0
aI0
aI0
aI0
aI0
aI0
aI0
aI0
aI0
aI0
aI0
aI0
aI0
aI0
aI0
aI0
aI0
aI0
aI0
aI0
aI0
aI0
aI0
aI0
aI0
aI0
aI0
aI0
aI0
aI0
aI0
aI0
aI0
aI0
aI0
aI0
aI0
aI0
aI0
aI0
aI0
aI0
aI0
aI0
aI0
aI0
aa(lp3308
I0
aI0
aI0
aI0
aI0
aI0
aI0
aI0
aI0
aI0
aI0
aI0
aI0
aI0
aI0
aI0
aI0
aI0
aI0
aI0
aI0
aI0
aI0
aI0
aI0
aI0
aI0
aI0
aI0
aI0
aI0
aI0
aI0
aI0
aI0
aI0
aI0
aI0
aI0
aI0
aI0
aI0
aI0
aI0
aI0
aI0
aI0
aI0
aI0
aI0
aa(lp3309
I0
aI0
aI0
aI0
aI0
aI0
aI0
aI0
aI0
aI0
aI0
aI0
aI0
aI0
aI0
aI0
aI0
aI0
aI0
aI0
aI0
aI0
aI0
aI0
aI0
aI0
aI0
aI0
aI0
aI0
aI0
aI0
aI0
aI0
aI0
aI0
aI0
aI0
aI0
aI0
aI0
aI0
aI0
aI0
aI0
aI0
aI0
aI0
aI0
aI0
aa(lp3310
I0
aI0
aI0
aI0
aI0
aI0
aI0
aI0
aI0
aI0
aI0
aI0
aI0
aI0
aI0
aI0
aI0
aI0
aI0
aI0
aI0
aI0
aI0
aI0
aI0
aI0
aI0
aI0
aI0
aI0
aI0
aI0
aI0
aI0
aI0
aI0
aI0
aI0
aI0
aI0
aI0
aI0
aI0
aI0
aI0
aI0
aI0
aI0
aI0
aI0
aa(lp3311
I0
aI0
aI0
aI0
aI0
aI0
aI0
aI0
aI0
aI0
aI0
aI0
aI0
aI0
aI0
aI0
aI0
aI0
aI0
aI0
aI0
aI0
aI0
aI0
aI0
aI0
aI0
aI0
aI0
aI0
aI0
aI0
aI0
aI0
aI0
aI0
aI0
aI0
aI0
aI0
aI0
aI0
aI0
aI0
aI0
aI0
aI0
aI0
aI0
aI0
aa(lp3312
I0
aI0
aI0
aI0
aI0
aI0
aI0
aI0
aI0
aI0
aI0
aI0
aI0
aI0
aI0
aI0
aI0
aI0
aI0
aI0
aI0
aI0
aI0
aI0
aI0
aI0
aI0
aI0
aI0
aI0
aI0
aI0
aI0
aI0
aI0
aI0
aI0
aI0
aI0
aI0
aI0
aI0
aI0
aI0
aI0
aI0
aI0
aI0
aI0
aI0
aa(lp3313
I0
aI0
aI0
aI0
aI0
aI0
aI0
aI0
aI0
aI0
aI0
aI0
aI0
aI0
aI0
aI0
aI0
aI0
aI0
aI0
aI0
aI0
aI0
aI0
aI0
aI0
aI0
aI0
aI0
aI0
aI0
aI0
aI0
aI0
aI0
aI0
aI0
aI0
aI0
aI0
aI0
aI0
aI0
aI0
aI0
aI0
aI0
aI0
aI0
aI0
aa(lp3314
I0
aI0
aI0
aI0
aI0
aI0
aI0
aI0
aI0
aI0
aI0
aI0
aI0
aI0
aI0
aI0
aI0
aI0
aI0
aI0
aI0
aI0
aI0
aI0
aI0
aI0
aI0
aI0
aI0
aI0
aI0
aI0
aI0
aI0
aI0
aI0
aI0
aI0
aI0
aI0
aI0
aI0
aI0
aI0
aI0
aI0
aI0
aI0
aI0
aI0
aa(lp3315
I0
aI0
aI0
aI0
aI0
aI0
aI0
aI0
aI0
aI0
aI0
aI0
aI0
aI0
aI0
aI0
aI0
aI0
aI0
aI0
aI0
aI0
aI0
aI0
aI0
aI0
aI0
aI0
aI0
aI0
aI0
aI0
aI0
aI0
aI0
aI0
aI0
aI0
aI0
aI0
aI0
aI0
aI0
aI0
aI0
aI0
aI0
aI0
aI0
aI0
aa(lp3316
I0
aI0
aI0
aI0
aI0
aI0
aI0
aI0
aI0
aI0
aI0
aI0
aI0
aI0
aI0
aI0
aI0
aI0
aI0
aI0
aI0
aI0
aI0
aI0
aI0
aI0
aI0
aI0
aI0
aI0
aI0
aI0
aI0
aI0
aI0
aI0
aI0
aI0
aI0
aI0
aI0
aI0
aI0
aI0
aI0
aI0
aI0
aI0
aI0
aI0
aasg4
(lp3317
sg125
(I50
I50
tp3318
sbsg125
(I50
I50
tp3319
sb.