(iCode.Engine.DungeonGenerator
DungeonGrid
p0
(dp1
S'toStream'
p2
(lp3
sS'majorNodes'
p4
(dp5
(I7
I3
tp6
(dp7
S'type'
p8
S'boss'
p9
sS'maxRoads'
p10
I0
ss(I37
I7
tp11
(dp12
S'god'
p13
S'Water'
p14
sg8
S'shrine'
p15
sg10
I3
ss(I32
I13
tp16
(dp17
g13
S'Nature'
p18
sg8
g15
sg10
I1
ss(I4
I27
tp19
(dp20
g13
g18
sg8
g15
sg10
I1
ss(I32
I44
tp21
(dp22
g8
g9
sg10
I0
ss(I43
I46
tp23
(dp24
g13
g18
sg8
g15
sg10
I1
ss(I6
I14
tp25
(dp26
g13
g14
sg8
g15
sg10
I3
ss(I47
I27
tp27
(dp28
g8
g9
sg10
I0
ss(I12
I43
tp29
(dp30
g8
g9
sg10
I0
ss(I45
I4
tp31
(dp32
g13
g14
sg8
g15
sg10
I3
ss(I12
I24
tp33
(dp34
g13
g14
sg8
g15
sg10
I3
ss(I43
I36
tp35
(dp36
g13
g18
sg8
g15
sg10
I1
ss(I33
I25
tp37
(dp38
g8
g9
sg10
I0
ss(I24
I37
tp39
(dp40
g13
S'Death'
p41
sg8
g15
sg10
I3
ss(I12
I7
tp42
(dp43
g13
g14
sg8
g15
sg10
I3
ss(I3
I33
tp44
(dp45
g13
g18
sg8
g15
sg10
I1
ss(I25
I25
tp46
(dp47
g8
S'hub'
p48
sg10
I4
ss(I23
I14
tp49
(dp50
g13
g14
sg8
g15
sg10
I3
ss(I27
I6
tp51
(dp52
g13
g14
sg8
g15
sg10
I3
ss(I7
I44
tp53
(dp54
g8
g9
sg10
I0
ss(I13
I14
tp55
(dp56
g13
g14
sg8
g15
sg10
I3
ss(I37
I32
tp57
(dp58
g13
g18
sg8
g15
sg10
I1
ss(I22
I43
tp59
(dp60
g8
g9
sg10
I0
ss(I43
I12
tp61
(dp62
g13
g18
sg8
g15
sg10
I1
ss(I13
I36
tp63
(dp64
g8
g9
sg10
I0
sssS'riverTiles'
p65
(dp66
sS'climateGrid'
p67
(iCode.Engine.DungeonGenerator
ClimateStruct
p68
(dp69
S'tiles'
p70
(lp71
(lp72
S'2'
p73
ag73
ag73
ag73
ag73
ag73
ag73
ag73
ag73
ag73
ag73
ag73
ag73
ag73
ag73
aS'1'
p74
ag74
ag74
ag74
ag74
ag74
ag74
ag74
ag74
ag74
ag74
ag74
ag74
ag74
ag74
ag74
ag74
ag74
ag74
ag74
ag74
ag74
ag74
ag74
ag74
ag74
ag74
ag74
ag74
ag74
ag74
ag74
ag74
ag74
ag74
aa(lp75
g73
ag73
ag73
ag73
ag73
ag73
ag73
ag73
ag73
ag73
ag73
ag73
ag73
ag73
ag73
ag74
ag74
ag74
ag74
ag74
ag74
ag74
ag74
ag74
ag74
ag74
ag74
ag74
ag74
ag74
ag74
ag74
ag74
ag74
ag74
ag74
ag74
ag74
ag74
ag74
ag74
ag74
ag74
ag74
ag74
ag74
ag74
ag74
ag74
ag74
aa(lp76
g73
ag73
ag73
ag73
ag73
ag73
ag73
ag73
ag73
ag73
ag73
ag73
ag73
ag73
ag74
ag74
ag74
ag74
ag74
ag74
ag74
ag74
ag74
ag74
ag74
ag74
ag74
ag74
ag74
ag74
ag74
ag74
ag74
ag74
ag74
ag74
ag74
ag74
ag74
ag74
ag74
ag74
ag74
ag74
ag74
ag74
ag74
ag74
ag74
ag74
aa(lp77
g73
ag73
ag73
ag73
ag73
ag73
ag73
ag73
ag73
ag73
ag73
ag73
ag73
ag74
ag74
ag74
ag74
ag74
ag74
ag74
ag74
ag74
ag74
ag74
ag74
ag74
ag74
ag74
ag74
ag74
ag74
ag74
ag74
ag74
ag74
ag74
ag74
ag74
ag74
ag74
ag74
ag74
ag74
ag74
ag74
ag74
ag74
ag74
ag74
ag74
aa(lp78
g73
ag73
ag73
ag73
ag73
ag73
ag73
ag73
ag73
ag73
ag73
ag73
ag74
ag74
ag74
ag74
ag74
ag74
ag74
ag74
ag74
ag74
ag74
ag74
ag74
ag74
ag74
ag74
ag74
ag74
ag74
ag74
ag74
ag74
ag74
ag74
ag74
ag74
ag74
ag74
ag74
ag74
ag74
ag74
ag74
ag74
ag74
ag74
ag74
ag74
aa(lp79
g73
ag73
ag73
ag73
ag73
ag73
ag73
ag73
ag73
ag73
ag73
ag74
ag74
ag74
ag74
ag74
ag74
ag74
ag74
ag74
ag74
ag74
ag74
ag74
ag74
ag74
ag74
ag74
ag74
ag74
ag74
ag74
ag74
ag74
ag74
ag74
ag74
ag74
ag74
ag74
ag74
ag74
ag74
ag74
ag74
ag74
ag74
ag74
ag74
ag74
aa(lp80
g73
ag73
ag73
ag73
ag73
ag73
ag73
ag73
ag73
ag73
ag74
ag74
ag74
ag74
ag74
ag74
ag74
ag74
ag74
ag74
ag74
ag74
ag74
ag74
ag74
ag74
ag74
ag74
ag74
ag74
ag74
ag74
ag74
ag74
ag74
ag74
ag74
ag74
ag74
ag74
ag74
ag74
ag74
ag74
ag74
ag74
ag74
ag74
ag74
aS'0'
p81
aa(lp82
g73
ag73
ag73
ag73
ag73
ag73
ag73
ag73
ag73
ag73
ag74
ag74
ag74
ag74
ag74
ag74
ag74
ag74
ag74
ag74
ag74
ag74
ag74
ag74
ag74
ag74
ag74
ag74
ag74
ag74
ag74
ag74
ag74
ag74
ag74
ag74
ag74
ag74
ag74
ag74
ag74
ag74
ag74
ag74
ag74
ag74
ag74
ag74
ag81
ag81
aa(lp83
g73
ag73
ag73
ag73
ag73
ag73
ag73
ag73
ag73
ag73
ag74
ag74
ag74
ag74
ag74
ag74
ag74
ag74
ag74
ag74
ag74
ag74
ag74
ag74
ag74
ag74
ag74
ag74
ag74
ag74
ag74
ag74
ag74
ag74
ag74
ag74
ag74
ag74
ag74
ag74
ag74
ag74
ag74
ag74
ag74
ag74
ag74
ag81
ag81
ag81
aa(lp84
g73
ag73
ag73
ag73
ag73
ag73
ag73
ag73
ag73
ag73
ag74
ag74
ag74
ag74
ag74
ag74
ag74
ag74
ag74
ag74
ag74
ag74
ag74
ag74
ag74
ag74
ag74
ag74
ag74
ag74
ag74
ag74
ag74
ag74
ag74
ag74
ag74
ag74
ag74
ag74
ag74
ag74
ag74
ag74
ag74
ag74
ag81
ag81
ag81
ag81
aa(lp85
g73
ag73
ag73
ag73
ag73
ag73
ag73
ag73
ag73
ag74
ag74
ag74
ag74
ag74
ag74
ag74
ag74
ag74
ag74
ag74
ag74
ag74
ag74
ag74
ag74
ag74
ag74
ag74
ag74
ag74
ag74
ag74
ag74
ag74
ag74
ag74
ag74
ag74
ag74
ag74
ag74
ag74
ag74
ag74
ag74
ag81
ag81
ag81
ag81
ag81
aa(lp86
g73
ag73
ag73
ag73
ag73
ag74
ag74
ag74
ag74
ag74
ag74
ag74
ag74
ag74
ag74
ag74
ag74
ag74
ag74
ag74
ag74
ag74
ag74
ag74
ag74
ag74
ag74
ag74
ag74
ag74
ag74
ag74
ag74
ag74
ag81
ag81
ag81
ag81
ag81
ag81
ag81
ag81
ag81
ag81
ag81
ag81
ag81
ag81
ag81
ag81
aa(lp87
g73
ag74
ag74
ag74
ag74
ag74
ag74
ag74
ag74
ag74
ag74
ag74
ag74
ag74
ag74
ag74
ag74
ag74
ag74
ag74
ag74
ag74
ag74
ag74
ag74
ag74
ag74
ag74
ag74
ag74
ag74
ag74
ag74
ag81
ag81
ag81
ag81
ag81
ag81
ag81
ag81
ag81
ag81
ag81
ag81
ag81
ag81
ag81
ag81
ag81
aa(lp88
g74
ag74
ag74
ag74
ag74
ag74
ag74
ag74
ag74
ag74
ag74
ag74
ag74
ag74
ag74
ag74
ag74
ag74
ag74
ag74
ag74
ag74
ag74
ag74
ag74
ag74
ag74
ag74
ag74
ag74
ag74
ag74
ag81
ag81
ag81
ag81
ag81
ag81
ag81
ag81
ag81
ag81
ag81
ag81
ag81
ag81
ag81
ag81
ag81
ag81
aa(lp89
g74
ag74
ag74
ag74
ag74
ag74
ag74
ag74
ag74
ag74
ag74
ag74
ag74
ag74
ag74
ag74
ag74
ag74
ag74
ag74
ag74
ag74
ag74
ag74
ag74
ag74
ag74
ag74
ag74
ag74
ag74
ag81
ag81
ag81
ag81
ag81
ag81
ag81
ag81
ag81
ag81
ag81
ag81
ag81
ag81
ag81
ag81
ag81
ag81
ag81
aa(lp90
g74
ag74
ag74
ag74
ag74
ag74
ag74
ag74
ag74
ag74
ag74
ag74
ag74
ag74
ag74
ag74
ag74
ag74
ag74
ag74
ag74
ag74
ag74
ag74
ag74
ag74
ag74
ag74
ag74
ag74
ag81
ag81
ag81
ag81
ag81
ag81
ag81
ag81
ag81
ag81
ag81
ag81
ag81
ag81
ag81
ag81
ag81
ag81
ag81
ag81
aa(lp91
g74
ag74
ag74
ag74
ag74
ag74
ag74
ag74
ag74
ag74
ag74
ag74
ag74
ag74
ag74
ag74
ag74
ag74
ag74
ag74
ag74
ag74
ag74
ag74
ag74
ag74
ag74
ag74
ag74
ag74
ag81
ag81
ag81
ag81
ag81
ag81
ag81
ag81
ag81
ag81
ag81
ag81
ag81
ag81
ag81
ag81
ag81
ag81
ag81
ag81
aa(lp92
g74
ag74
ag74
ag74
ag74
ag74
ag74
ag74
ag74
ag74
ag74
ag74
ag74
ag74
ag74
ag74
ag74
ag74
ag74
ag74
ag74
ag74
ag74
ag74
ag74
ag74
ag74
ag74
ag74
ag74
ag81
ag81
ag81
ag81
ag81
ag81
ag81
ag81
ag81
ag81
ag81
ag81
ag81
ag81
ag81
ag81
ag81
ag81
ag81
ag81
aa(lp93
g81
ag74
ag74
ag74
ag74
ag74
ag74
ag74
ag74
ag74
ag74
ag74
ag74
ag74
ag74
ag74
ag74
ag74
ag74
ag74
ag74
ag74
ag74
ag74
ag74
ag74
ag74
ag74
ag74
ag81
ag81
ag81
ag81
ag81
ag81
ag81
ag81
ag81
ag81
ag81
ag81
ag81
ag81
ag81
ag81
ag81
ag81
ag81
ag81
ag81
aa(lp94
g81
ag81
ag74
ag74
ag74
ag74
ag74
ag74
ag74
ag74
ag74
ag74
ag74
ag74
ag74
ag74
ag74
ag74
ag74
ag74
ag74
ag74
ag74
ag74
ag74
ag74
ag74
ag74
ag74
ag81
ag81
ag81
ag81
ag81
ag81
ag81
ag81
ag81
ag81
ag81
ag81
ag81
ag81
ag81
ag81
ag81
ag81
ag81
ag81
ag74
aa(lp95
g81
ag81
ag81
ag74
ag74
ag74
ag74
ag74
ag74
ag74
ag74
ag74
ag74
ag74
ag74
ag74
ag74
ag74
ag74
ag74
ag74
ag74
ag74
ag74
ag74
ag74
ag74
ag74
ag74
ag81
ag81
ag81
ag81
ag81
ag81
ag81
ag81
ag81
ag81
ag81
ag81
ag81
ag81
ag81
ag81
ag81
ag81
ag81
ag74
ag74
aa(lp96
g81
ag81
ag81
ag81
ag81
ag81
ag81
ag81
ag74
ag74
ag74
ag74
ag74
ag74
ag74
ag74
ag74
ag74
ag74
ag74
ag74
ag74
ag74
ag74
ag74
ag74
ag74
ag74
ag81
ag81
ag81
ag81
ag81
ag81
ag81
ag81
ag81
ag81
ag81
ag81
ag81
ag81
ag81
ag81
ag81
ag81
ag74
ag74
ag74
ag74
aa(lp97
g81
ag81
ag81
ag81
ag81
ag81
ag81
ag81
ag81
ag74
ag74
ag74
ag74
ag74
ag74
ag74
ag74
ag74
ag74
ag74
ag74
ag74
ag74
ag74
ag74
ag74
ag74
ag74
ag81
ag81
ag81
ag81
ag81
ag81
ag81
ag81
ag81
ag81
ag81
ag81
ag81
ag81
ag81
ag81
ag81
ag74
ag74
ag74
ag74
ag74
aa(lp98
g81
ag81
ag81
ag81
ag81
ag81
ag81
ag81
ag81
ag74
ag74
ag74
ag74
ag74
ag74
ag74
ag74
ag74
ag74
ag74
ag74
ag74
ag74
ag74
ag74
ag74
ag74
ag74
ag81
ag81
ag81
ag81
ag81
ag81
ag81
ag81
ag81
ag81
ag81
ag81
ag81
ag81
ag81
ag74
ag74
ag74
ag74
ag74
ag74
ag74
aa(lp99
g81
ag81
ag81
ag81
ag81
ag81
ag81
ag81
ag81
ag74
ag74
ag74
ag74
ag74
ag74
ag74
ag74
ag74
ag74
ag74
ag74
ag74
ag74
ag74
ag74
ag74
ag74
ag74
ag81
ag81
ag81
ag81
ag81
ag81
ag81
ag81
ag81
ag81
ag81
ag81
ag81
ag81
ag74
ag74
ag74
ag74
ag74
ag74
ag74
ag74
aa(lp100
g81
ag81
ag81
ag81
ag81
ag81
ag81
ag81
ag81
ag74
ag74
ag74
ag74
ag74
ag74
ag74
ag74
ag74
ag74
ag74
ag74
ag74
ag74
ag74
ag74
ag74
ag74
ag74
ag74
ag81
ag81
ag81
ag81
ag81
ag81
ag81
ag81
ag81
ag81
ag81
ag81
ag74
ag74
ag74
ag74
ag74
ag74
ag74
ag74
ag74
aa(lp101
g81
ag81
ag81
ag81
ag81
ag81
ag81
ag81
ag81
ag74
ag74
ag74
ag74
ag74
ag74
ag74
ag74
ag74
ag74
ag74
ag74
ag74
ag74
ag74
ag74
ag74
ag74
ag74
ag74
ag81
ag81
ag81
ag81
ag81
ag81
ag81
ag81
ag81
ag81
ag81
ag81
ag74
ag74
ag74
ag74
ag74
ag74
ag74
ag74
ag74
aa(lp102
g81
ag81
ag81
ag81
ag81
ag81
ag81
ag81
ag81
ag81
ag74
ag74
ag74
ag74
ag74
ag74
ag74
ag74
ag74
ag74
ag74
ag74
ag74
ag74
ag74
ag74
ag74
ag74
ag74
ag74
ag81
ag81
ag81
ag81
ag81
ag81
ag81
ag81
ag81
ag81
ag81
ag81
ag74
ag74
ag74
ag74
ag74
ag74
ag74
ag74
aa(lp103
g81
ag81
ag81
ag81
ag81
ag81
ag81
ag81
ag81
ag81
ag81
ag74
ag74
ag74
ag74
ag74
ag74
ag74
ag74
ag74
ag74
ag74
ag74
ag74
ag74
ag74
ag74
ag74
ag74
ag74
ag74
ag74
ag81
ag81
ag81
ag81
ag81
ag81
ag81
ag81
ag81
ag81
ag81
ag81
ag81
ag74
ag74
ag74
ag74
ag74
aa(lp104
g81
ag81
ag81
ag81
ag81
ag81
ag81
ag81
ag81
ag81
ag81
ag81
ag74
ag74
ag74
ag74
ag74
ag74
ag74
ag74
ag74
ag74
ag74
ag74
ag74
ag74
ag74
ag74
ag74
ag74
ag74
ag74
ag74
ag81
ag81
ag81
ag81
ag81
ag81
ag81
ag81
ag81
ag81
ag81
ag81
ag81
ag81
ag81
ag81
ag81
aa(lp105
g81
ag81
ag81
ag81
ag81
ag81
ag81
ag81
ag81
ag81
ag81
ag81
ag73
ag73
ag73
ag73
ag73
ag73
ag73
ag73
ag73
ag73
ag74
ag74
ag74
ag74
ag74
ag74
ag74
ag74
ag74
ag74
ag74
ag74
ag81
ag81
ag81
ag81
ag81
ag81
ag81
ag81
ag81
ag81
ag81
ag81
ag81
ag81
ag81
ag81
aa(lp106
g81
ag81
ag81
ag81
ag81
ag81
ag81
ag81
ag81
ag81
ag81
ag81
ag73
ag73
ag73
ag73
ag73
ag73
ag73
ag73
ag73
ag73
ag73
ag74
ag74
ag74
ag74
ag74
ag74
ag74
ag74
ag74
ag74
ag74
ag74
ag81
ag81
ag81
ag81
ag81
ag81
ag81
ag81
ag81
ag81
ag81
ag81
ag81
ag81
ag81
aa(lp107
g81
ag81
ag81
ag81
ag81
ag81
ag81
ag81
ag81
ag81
ag81
ag73
ag73
ag73
ag73
ag73
ag73
ag73
ag73
ag73
ag73
ag73
ag73
ag74
ag74
ag74
ag74
ag74
ag74
ag74
ag74
ag74
ag74
ag74
ag74
ag81
ag81
ag81
ag81
ag81
ag81
ag81
ag81
ag81
ag81
ag81
ag81
ag81
ag81
ag81
aa(lp108
g81
ag81
ag81
ag81
ag81
ag81
ag81
ag81
ag81
ag81
ag81
ag73
ag73
ag73
ag73
ag73
ag73
ag73
ag73
ag73
ag73
ag73
ag73
ag73
ag74
ag74
ag74
ag74
ag74
ag74
ag74
ag74
ag74
ag74
ag74
ag81
ag81
ag81
ag81
ag81
ag81
ag81
ag81
ag81
ag81
ag81
ag81
ag81
ag81
ag81
aa(lp109
g81
ag81
ag81
ag81
ag81
ag81
ag81
ag81
ag81
ag81
ag81
ag81
ag73
ag73
ag73
ag73
ag73
ag73
ag73
ag73
ag73
ag73
ag73
ag73
ag74
ag74
ag74
ag74
ag74
ag74
ag74
ag74
ag74
ag74
ag74
ag81
ag81
ag81
ag81
ag81
ag81
ag81
ag81
ag81
ag81
ag81
ag81
ag81
ag81
ag81
aa(lp110
g81
ag81
ag81
ag81
ag81
ag81
ag81
ag81
ag81
ag81
ag81
ag81
ag81
ag81
ag73
ag73
ag73
ag73
ag73
ag73
ag73
ag73
ag73
ag73
ag73
ag74
ag74
ag74
ag74
ag74
ag74
ag74
ag74
ag74
ag74
ag81
ag81
ag81
ag81
ag81
ag81
ag81
ag81
ag81
ag81
ag81
ag81
ag81
ag81
ag81
aa(lp111
g74
ag74
ag74
ag74
ag74
ag74
ag81
ag81
ag81
ag81
ag81
ag81
ag81
ag81
ag81
ag73
ag73
ag73
ag73
ag73
ag73
ag73
ag73
ag73
ag73
ag74
ag74
ag74
ag74
ag74
ag74
ag74
ag74
ag74
ag74
ag81
ag81
ag81
ag81
ag81
ag81
ag81
ag81
ag81
ag81
ag81
ag81
ag81
ag81
ag81
aa(lp112
g74
ag74
ag74
ag74
ag74
ag74
ag74
ag81
ag81
ag81
ag81
ag81
ag81
ag81
ag81
ag81
ag73
ag73
ag73
ag73
ag73
ag73
ag73
ag73
ag73
ag74
ag74
ag74
ag74
ag74
ag74
ag74
ag74
ag74
ag74
ag74
ag81
ag81
ag81
ag81
ag81
ag81
ag81
ag81
ag81
ag81
ag81
ag81
ag81
ag81
aa(lp113
g74
ag74
ag74
ag74
ag74
ag74
ag74
ag74
ag74
ag81
ag81
ag81
ag81
ag81
ag81
ag81
ag81
ag73
ag73
ag73
ag73
ag73
ag73
ag73
ag73
ag74
ag74
ag74
ag74
ag74
ag74
ag74
ag74
ag74
ag74
ag74
ag81
ag81
ag81
ag81
ag81
ag81
ag81
ag81
ag81
ag81
ag81
ag81
ag81
ag81
aa(lp114
g74
ag74
ag74
ag74
ag74
ag74
ag74
ag74
ag74
ag74
ag81
ag81
ag81
ag81
ag81
ag81
ag81
ag73
ag73
ag73
ag73
ag73
ag73
ag73
ag73
ag74
ag74
ag74
ag74
ag74
ag74
ag74
ag74
ag74
ag74
ag74
ag74
ag81
ag81
ag81
ag81
ag81
ag81
ag81
ag81
ag81
ag81
ag81
ag81
ag81
aa(lp115
g74
ag74
ag74
ag74
ag74
ag74
ag74
ag74
ag74
ag74
ag74
ag81
ag81
ag81
ag81
ag81
ag81
ag81
ag73
ag73
ag73
ag73
ag73
ag73
ag74
ag74
ag74
ag74
ag74
ag74
ag74
ag74
ag74
ag74
ag74
ag74
ag74
ag81
ag81
ag81
ag81
ag81
ag81
ag81
ag81
ag81
ag81
ag81
ag81
ag81
aa(lp116
g74
ag74
ag74
ag74
ag74
ag74
ag74
ag74
ag74
ag74
ag74
ag74
ag81
ag81
ag81
ag81
ag81
ag81
ag73
ag73
ag73
ag73
ag73
ag74
ag74
ag74
ag74
ag74
ag74
ag74
ag74
ag74
ag74
ag74
ag74
ag74
ag74
ag81
ag81
ag81
ag81
ag81
ag81
ag81
ag81
ag81
ag81
ag81
ag81
ag81
aa(lp117
g74
ag74
ag74
ag74
ag74
ag74
ag74
ag74
ag74
ag74
ag74
ag74
ag74
ag81
ag81
ag81
ag81
ag81
ag74
ag74
ag74
ag74
ag74
ag74
ag74
ag74
ag74
ag74
ag74
ag74
ag74
ag74
ag74
ag74
ag74
ag74
ag74
ag74
ag81
ag81
ag81
ag81
ag81
ag81
ag81
ag81
ag81
ag81
ag81
ag81
aa(lp118
g74
ag74
ag74
ag74
ag74
ag74
ag74
ag74
ag74
ag74
ag74
ag74
ag74
ag74
ag81
ag81
ag81
ag74
ag74
ag74
ag74
ag74
ag74
ag74
ag74
ag74
ag74
ag74
ag74
ag74
ag74
ag74
ag74
ag74
ag74
ag74
ag74
ag74
ag74
ag81
ag81
ag81
ag81
ag81
ag81
ag81
ag81
ag81
ag81
ag81
aa(lp119
g74
ag74
ag74
ag74
ag74
ag74
ag74
ag74
ag74
ag74
ag74
ag74
ag74
ag74
ag74
ag74
ag74
ag74
ag74
ag74
ag74
ag74
ag74
ag74
ag74
ag74
ag74
ag74
ag74
ag74
ag74
ag74
ag74
ag74
ag74
ag74
ag74
ag74
ag74
ag81
ag81
ag81
ag81
ag81
ag81
ag81
ag81
ag81
ag81
ag81
aa(lp120
g74
ag74
ag74
ag74
ag74
ag74
ag74
ag74
ag74
ag74
ag74
ag74
ag74
ag74
ag74
ag74
ag74
ag74
ag74
ag74
ag74
ag74
ag74
ag74
ag74
ag74
ag74
ag74
ag74
ag74
ag74
ag74
ag74
ag74
ag74
ag74
ag74
ag74
ag74
ag74
ag81
ag81
ag81
ag81
ag81
ag81
ag81
ag81
ag81
ag81
aa(lp121
g74
ag74
ag74
ag74
ag74
ag74
ag74
ag74
ag74
ag74
ag74
ag74
ag74
ag74
ag74
ag74
ag74
ag74
ag74
ag74
ag74
ag74
ag74
ag74
ag74
ag74
ag74
ag74
ag74
ag74
ag74
ag74
ag74
ag74
ag74
ag74
ag74
ag74
ag74
ag74
ag74
ag81
ag81
ag81
ag81
ag81
ag81
ag81
ag81
ag81
aa(lp122
g74
ag74
ag74
ag74
ag74
ag74
ag74
ag74
ag74
ag74
ag74
ag74
ag74
ag74
ag74
ag74
ag74
ag74
ag74
ag74
ag74
ag74
ag74
ag74
ag74
ag74
ag74
ag74
ag74
ag74
ag74
ag74
ag74
ag74
ag74
ag74
ag74
ag74
ag74
ag74
ag74
ag74
ag81
ag81
ag81
ag81
ag81
ag81
ag81
ag81
aa(lp123
g74
ag74
ag74
ag74
ag74
ag74
ag74
ag74
ag74
ag74
ag74
ag74
ag74
ag74
ag74
ag74
ag74
ag74
ag74
ag74
ag74
ag74
ag74
ag74
ag74
ag74
ag74
ag74
ag74
ag74
ag74
ag74
ag74
ag74
ag74
ag74
ag74
ag74
ag74
ag74
ag74
ag74
ag74
ag81
ag81
ag81
ag81
ag81
ag81
ag81
aa(lp124
g74
ag74
ag74
ag74
ag74
ag74
ag74
ag74
ag74
ag74
ag74
ag74
ag74
ag74
ag74
ag74
ag74
ag74
ag74
ag74
ag74
ag74
ag74
ag74
ag74
ag74
ag74
ag74
ag74
ag74
ag74
ag74
ag74
ag74
ag74
ag74
ag74
ag74
ag74
ag74
ag74
ag74
ag74
ag74
ag81
ag81
ag81
ag81
ag81
ag81
aasS'size'
p125
(I50
I50
tp126
sbsS'floor'
p127
I1
sS'walls'
p128
(lp129
(lp130
I0
aI0
aI0
aI0
aI0
aI0
aI0
aI0
aI0
aI0
aI0
aI0
aI0
aI0
aI0
aI0
aI0
aI0
aI0
aI0
aI0
aI0
aI0
aI0
aI0
aI0
aI0
aI0
aI0
aI0
aI0
aI0
aI0
aI0
aI0
aI0
aI0
aI0
aI0
aI0
aI0
aI0
aI0
aI0
aI0
aI0
aI0
aI0
aI0
aI0
aa(lp131
I0
aI0
aI0
aI0
aI0
aI0
aI0
aI0
aI0
aI0
aI0
aI0
aI0
aI0
aI0
aI0
aI0
aI0
aI0
aI0
aI0
aI0
aI0
aI0
aI0
aI0
aI0
aI0
aI0
aI0
aI0
aI0
aI0
aI0
aI0
aI0
aI0
aI0
aI0
aI0
aI0
aI0
aI0
aI0
aI0
aI0
aI0
aI0
aI0
aI0
aa(lp132
I0
aI0
aI0
aI0
aI0
aI0
aI0
aI0
aI0
aI0
aI0
aI0
aI0
aI0
aI0
aI0
aI0
aI0
aI0
aI0
aI0
aI0
aI0
aI0
aI0
aI0
aI0
aI0
aI0
aI0
aI0
aI0
aI0
aI0
aI0
aI0
aI0
aI0
aI0
aI0
aI0
aI0
aI0
aI0
aI0
aI0
aI0
aI0
aI0
aI0
aa(lp133
I0
aI0
aI0
aI0
aI0
aI0
aI0
aI0
aI0
aI0
aI0
aI0
aI0
aI0
aI0
aI0
aI0
aI0
aI0
aI0
aI0
aI0
aI0
aI0
aI0
aI0
aI0
aI0
aI0
aI0
aI0
aI0
aI0
aI0
aI0
aI0
aI0
aI0
aI0
aI0
aI0
aI0
aI0
aI0
aI0
aI0
aI0
aI0
aI0
aI0
aa(lp134
I0
aI0
aI0
aI0
aI0
aI0
aI0
aI0
aI0
aI0
aI0
aI0
aI0
aI0
aI0
aI0
aI0
aI0
aI0
aI0
aI0
aI0
aI0
aI0
aI0
aI0
aI0
aI0
aI0
aI0
aI0
aI0
aI0
aI0
aI0
aI0
aI0
aI0
aI0
aI0
aI0
aI0
aI0
aI0
aI0
aI0
aI0
aI0
aI0
aI0
aa(lp135
I0
aI0
aI0
aI0
aI0
aI0
aI0
aI0
aI0
aI0
aI0
aI0
aI0
aI0
aI0
aI0
aI0
aI0
aI0
aI0
aI0
aI0
aI0
aI0
aI0
aI0
aI0
aI0
aI0
aI0
aI0
aI0
aI0
aI0
aI0
aI0
aI0
aI0
aI0
aI0
aI0
aI0
aI0
aI0
aI0
aI0
aI0
aI0
aI0
aI0
aa(lp136
I0
aI0
aI0
aI0
aI0
aI0
aI0
aI0
aI0
aI0
aI0
aI0
aI0
aI0
aI0
aI0
aI0
aI0
aI0
aI0
aI0
aI0
aI0
aI0
aI0
aI0
aI0
aI0
aI0
aI0
aI0
aI0
aI0
aI0
aI0
aI0
aI0
aI0
aI0
aI0
aI0
aI0
aI0
aI0
aI0
aI0
aI0
aI0
aI0
aI0
aa(lp137
I0
aI0
aI0
aI0
aI0
aI0
aI0
aI0
aI0
aI0
aI0
aI0
aI0
aI0
aI0
aI0
aI0
aI0
aI0
aI0
aI0
aI0
aI0
aI0
aI0
aI0
aI0
aI0
aI0
aI0
aI0
aI0
aI0
aI0
aI0
aI0
aI0
aI0
aI0
aI0
aI0
aI0
aI0
aI0
aI0
aI0
aI0
aI0
aI0
aI0
aa(lp138
I0
aI0
aI0
aI0
aI0
aI0
aI0
aI0
aI0
aI0
aI0
aI0
aI0
aI0
aI0
aI0
aI0
aI0
aI0
aI0
aI0
aI0
aI0
aI0
aI0
aI0
aI0
aI0
aI0
aI0
aI0
aI0
aI0
aI0
aI0
aI0
aI0
aI0
aI0
aI0
aI0
aI0
aI0
aI0
aI0
aI0
aI0
aI0
aI0
aI0
aa(lp139
I0
aI0
aI0
aI0
aI0
aI0
aI0
aI0
aI0
aI0
aI0
aI0
aI0
aI0
aI0
aI0
aI0
aI0
aI0
aI0
aI0
aI0
aI0
aI0
aI0
aI0
aI0
aI0
aI0
aI0
aI0
aI0
aI0
aI0
aI0
aI0
aI0
aI0
aI0
aI0
aI0
aI0
aI0
aI0
aI0
aI0
aI0
aI0
aI0
aI0
aa(lp140
I0
aI0
aI0
aI0
aI0
aI0
aI0
aI0
aI0
aI0
aI0
aI0
aI0
aI0
aI0
aI0
aI0
aI0
aI0
aI0
aI0
aI0
aI0
aI0
aI0
aI0
aI0
aI0
aI0
aI0
aI0
aI0
aI0
aI0
aI0
aI0
aI0
aI0
aI0
aI0
aI0
aI0
aI0
aI0
aI0
aI0
aI0
aI0
aI0
aI0
aa(lp141
I0
aI0
aI0
aI0
aI0
aI0
aI0
aI0
aI0
aI0
aI0
aI0
aI0
aI0
aI0
aI0
aI0
aI0
aI0
aI0
aI0
aI0
aI0
aI0
aI0
aI0
aI0
aI0
aI0
aI0
aI0
aI0
aI0
aI0
aI0
aI0
aI0
aI0
aI0
aI0
aI0
aI0
aI0
aI0
aI0
aI0
aI0
aI0
aI0
aI0
aa(lp142
I0
aI0
aI0
aI0
aI0
aI0
aI0
aI0
aI0
aI0
aI0
aI0
aI0
aI0
aI0
aI0
aI0
aI0
aI0
aI0
aI0
aI0
aI0
aI0
aI0
aI0
aI0
aI0
aI0
aI0
aI0
aI0
aI0
aI0
aI0
aI0
aI0
aI0
aI0
aI0
aI0
aI0
aI0
aI0
aI0
aI0
aI0
aI0
aI0
aI0
aa(lp143
I0
aI0
aI0
aI0
aI0
aI0
aI0
aI0
aI0
aI0
aI0
aI0
aI0
aI0
aI0
aI0
aI0
aI0
aI0
aI0
aI0
aI0
aI0
aI0
aI0
aI0
aI0
aI0
aI0
aI0
aI0
aI0
aI0
aI0
aI0
aI0
aI0
aI0
aI0
aI0
aI0
aI0
aI0
aI0
aI0
aI0
aI0
aI0
aI0
aI0
aa(lp144
I0
aI0
aI0
aI0
aI0
aI0
aI0
aI0
aI0
aI0
aI0
aI0
aI0
aI0
aI0
aI0
aI0
aI0
aI0
aI0
aI0
aI0
aI0
aI0
aI0
aI0
aI0
aI0
aI0
aI0
aI0
aI0
aI0
aI0
aI0
aI0
aI0
aI0
aI0
aI0
aI0
aI0
aI0
aI0
aI0
aI0
aI0
aI0
aI0
aI0
aa(lp145
I0
aI0
aI0
aI0
aI0
aI0
aI0
aI0
aI0
aI0
aI0
aI0
aI0
aI0
aI0
aI0
aI0
aI0
aI0
aI0
aI0
aI0
aI0
aI0
aI0
aI0
aI0
aI0
aI0
aI0
aI0
aI0
aI0
aI0
aI0
aI0
aI0
aI0
aI0
aI0
aI0
aI0
aI0
aI0
aI0
aI0
aI0
aI0
aI0
aI0
aa(lp146
I0
aI0
aI0
aI0
aI0
aI0
aI0
aI0
aI0
aI0
aI0
aI0
aI0
aI0
aI0
aI0
aI0
aI0
aI0
aI0
aI0
aI0
aI0
aI0
aI0
aI0
aI0
aI0
aI0
aI0
aI0
aI0
aI0
aI0
aI0
aI0
aI0
aI0
aI0
aI0
aI0
aI0
aI0
aI0
aI0
aI0
aI0
aI0
aI0
aI0
aa(lp147
I0
aI0
aI0
aI0
aI0
aI0
aI0
aI0
aI0
aI0
aI0
aI0
aI0
aI0
aI0
aI0
aI0
aI0
aI0
aI0
aI0
aI0
aI0
aI0
aI0
aI0
aI0
aI0
aI0
aI0
aI0
aI0
aI0
aI0
aI0
aI0
aI0
aI0
aI0
aI0
aI0
aI0
aI0
aI0
aI0
aI0
aI0
aI0
aI0
aI0
aa(lp148
I0
aI0
aI0
aI0
aI0
aI0
aI0
aI0
aI0
aI0
aI0
aI0
aI0
aI0
aI0
aI0
aI0
aI0
aI0
aI0
aI0
aI0
aI0
aI0
aI0
aI0
aI0
aI0
aI0
aI0
aI0
aI0
aI0
aI0
aI0
aI0
aI0
aI0
aI0
aI0
aI0
aI0
aI0
aI0
aI0
aI0
aI0
aI0
aI0
aI0
aa(lp149
I0
aI0
aI0
aI0
aI0
aI0
aI0
aI0
aI0
aI0
aI0
aI0
aI0
aI0
aI0
aI0
aI0
aI0
aI0
aI0
aI0
aI0
aI0
aI0
aI0
aI0
aI0
aI0
aI0
aI0
aI0
aI0
aI0
aI0
aI12
aI10
aI11
aI0
aI0
aI0
aI0
aI0
aI0
aI0
aI0
aI0
aI0
aI0
aI0
aI0
aa(lp150
I0
aI0
aI0
aI0
aI0
aI0
aI0
aI0
aI0
aI0
aI0
aI0
aI0
aI0
aI0
aI0
aI0
aI0
aI0
aI0
aI0
aI0
aI0
aI0
aI0
aI0
aI0
aI0
aI0
aI0
aI0
aI0
aI0
aI0
aI5
aI0
aI0
aI0
aI0
aI0
aI0
aI0
aI0
aI0
aI0
aI0
aI0
aI0
aI0
aI0
aa(lp151
I0
aI0
aI0
aI0
aI0
aI0
aI0
aI0
aI0
aI0
aI0
aI0
aI0
aI0
aI0
aI0
aI0
aI0
aI0
aI0
aI0
aI0
aI0
aI0
aI0
aI0
aI0
aI0
aI0
aI0
aI0
aI0
aI0
aI0
aI7
aI0
aI0
aI0
aI0
aI0
aI0
aI0
aI0
aI0
aI0
aI0
aI0
aI0
aI0
aI0
aa(lp152
I0
aI0
aI0
aI0
aI0
aI0
aI0
aI0
aI0
aI0
aI0
aI0
aI0
aI0
aI0
aI0
aI0
aI0
aI0
aI0
aI0
aI0
aI0
aI0
aI0
aI0
aI0
aI0
aI0
aI0
aI0
aI0
aI12
aI8
aI8
aI8
aI8
aI9
aI0
aI0
aI0
aI0
aI0
aI0
aI0
aI0
aI0
aI0
aI0
aI0
aa(lp153
I0
aI0
aI0
aI0
aI0
aI0
aI0
aI0
aI0
aI0
aI0
aI0
aI0
aI0
aI0
aI0
aI0
aI0
aI0
aI0
aI0
aI0
aI0
aI0
aI0
aI0
aI0
aI0
aI0
aI0
aI0
aI0
aI4
aI0
aI0
aI0
aI0
aI1
aI0
aI0
aI0
aI0
aI0
aI0
aI0
aI0
aI0
aI0
aI0
aI0
aa(lp154
I0
aI0
aI0
aI0
aI0
aI0
aI0
aI0
aI0
aI0
aI0
aI0
aI0
aI0
aI0
aI0
aI0
aI0
aI0
aI0
aI0
aI0
aI0
aI0
aI0
aI0
aI13
aI0
aI0
aI0
aI0
aI0
aI4
aI0
aI0
aI0
aI0
aI1
aI0
aI0
aI0
aI0
aI0
aI0
aI0
aI0
aI0
aI0
aI0
aI0
aa(lp155
I0
aI0
aI0
aI0
aI0
aI0
aI0
aI0
aI0
aI0
aI0
aI0
aI0
aI0
aI0
aI0
aI0
aI0
aI0
aI0
aI0
aI0
aI0
aI0
aI14
aI10
aI1
aI0
aI15
aI0
aI0
aI0
aI4
aI0
aI0
aI0
aI0
aI1
aI0
aI0
aI0
aI0
aI0
aI0
aI0
aI0
aI0
aI0
aI0
aI0
aa(lp156
I0
aI0
aI0
aI0
aI0
aI0
aI0
aI0
aI0
aI0
aI0
aI0
aI0
aI0
aI0
aI0
aI0
aI0
aI0
aI0
aI0
aI0
aI0
aI0
aI0
aI0
aI7
aI14
aI10
aI10
aI9
aI15
aI4
aI0
aI0
aI0
aI0
aI1
aI0
aI0
aI0
aI0
aI0
aI0
aI0
aI0
aI0
aI0
aI0
aI0
aa(lp157
I0
aI0
aI0
aI0
aI0
aI0
aI0
aI0
aI0
aI0
aI0
aI0
aI0
aI0
aI0
aI0
aI0
aI0
aI0
aI0
aI0
aI0
aI0
aI0
aI0
aI0
aI0
aI0
aI0
aI0
aI7
aI0
aI6
aI2
aI2
aI2
aI2
aI3
aI0
aI0
aI0
aI0
aI0
aI0
aI0
aI0
aI0
aI0
aI0
aI0
aa(lp158
I0
aI0
aI0
aI0
aI0
aI0
aI0
aI0
aI0
aI0
aI0
aI0
aI0
aI0
aI0
aI0
aI0
aI0
aI0
aI0
aI0
aI0
aI0
aI0
aI0
aI0
aI0
aI0
aI0
aI0
aI0
aI0
aI0
aI0
aI0
aI0
aI0
aI0
aI0
aI0
aI0
aI0
aI0
aI0
aI0
aI0
aI0
aI0
aI0
aI0
aa(lp159
I0
aI0
aI0
aI0
aI0
aI0
aI0
aI0
aI0
aI0
aI0
aI0
aI0
aI0
aI0
aI0
aI0
aI0
aI0
aI0
aI0
aI0
aI0
aI0
aI0
aI0
aI0
aI0
aI0
aI0
aI0
aI0
aI0
aI0
aI0
aI0
aI0
aI0
aI0
aI0
aI0
aI0
aI0
aI0
aI0
aI0
aI0
aI0
aI0
aI0
aa(lp160
I0
aI0
aI0
aI0
aI0
aI0
aI0
aI0
aI0
aI0
aI0
aI0
aI0
aI0
aI0
aI0
aI0
aI0
aI0
aI0
aI0
aI0
aI0
aI0
aI0
aI0
aI0
aI0
aI0
aI0
aI0
aI0
aI0
aI0
aI0
aI0
aI0
aI0
aI0
aI0
aI0
aI0
aI0
aI0
aI0
aI0
aI0
aI0
aI0
aI0
aa(lp161
I0
aI0
aI0
aI0
aI0
aI0
aI0
aI0
aI0
aI0
aI0
aI0
aI0
aI0
aI0
aI0
aI0
aI0
aI0
aI0
aI0
aI0
aI0
aI0
aI0
aI0
aI0
aI0
aI0
aI0
aI0
aI0
aI0
aI0
aI0
aI0
aI0
aI0
aI0
aI0
aI0
aI0
aI0
aI0
aI0
aI0
aI0
aI0
aI0
aI0
aa(lp162
I0
aI0
aI0
aI0
aI0
aI0
aI0
aI0
aI0
aI0
aI0
aI0
aI0
aI0
aI0
aI0
aI0
aI0
aI0
aI0
aI0
aI0
aI0
aI0
aI0
aI0
aI0
aI0
aI0
aI0
aI0
aI0
aI0
aI0
aI0
aI0
aI0
aI0
aI0
aI0
aI0
aI0
aI0
aI0
aI0
aI0
aI0
aI0
aI0
aI0
aa(lp163
I0
aI0
aI0
aI0
aI0
aI0
aI0
aI0
aI0
aI0
aI0
aI0
aI0
aI0
aI0
aI0
aI0
aI0
aI0
aI0
aI0
aI0
aI0
aI0
aI0
aI0
aI0
aI0
aI0
aI0
aI0
aI0
aI0
aI0
aI0
aI0
aI0
aI0
aI0
aI0
aI0
aI0
aI0
aI0
aI0
aI0
aI0
aI0
aI0
aI0
aa(lp164
I0
aI0
aI0
aI0
aI0
aI0
aI0
aI0
aI0
aI0
aI0
aI0
aI0
aI0
aI0
aI0
aI0
aI0
aI0
aI0
aI0
aI0
aI0
aI0
aI0
aI0
aI0
aI0
aI0
aI0
aI0
aI0
aI0
aI0
aI0
aI0
aI0
aI0
aI0
aI0
aI0
aI0
aI0
aI0
aI0
aI0
aI0
aI0
aI0
aI0
aa(lp165
I0
aI0
aI0
aI0
aI0
aI0
aI0
aI0
aI0
aI0
aI0
aI0
aI0
aI0
aI0
aI0
aI0
aI0
aI0
aI0
aI0
aI0
aI0
aI0
aI0
aI0
aI0
aI0
aI0
aI0
aI0
aI0
aI0
aI0
aI0
aI0
aI0
aI0
aI0
aI0
aI0
aI0
aI0
aI0
aI0
aI0
aI0
aI0
aI0
aI0
aa(lp166
I0
aI0
aI0
aI0
aI0
aI0
aI0
aI0
aI0
aI0
aI0
aI0
aI0
aI0
aI0
aI0
aI0
aI0
aI0
aI0
aI0
aI0
aI0
aI0
aI0
aI0
aI0
aI0
aI0
aI0
aI0
aI0
aI0
aI0
aI0
aI0
aI0
aI0
aI0
aI0
aI0
aI0
aI0
aI0
aI0
aI0
aI0
aI0
aI0
aI0
aa(lp167
I0
aI0
aI0
aI0
aI0
aI0
aI0
aI0
aI0
aI0
aI0
aI0
aI0
aI0
aI0
aI0
aI0
aI0
aI0
aI0
aI0
aI0
aI0
aI0
aI0
aI0
aI0
aI0
aI0
aI0
aI0
aI0
aI0
aI0
aI0
aI0
aI0
aI0
aI0
aI0
aI0
aI0
aI0
aI0
aI0
aI0
aI0
aI0
aI0
aI0
aa(lp168
I0
aI0
aI0
aI0
aI0
aI0
aI0
aI0
aI0
aI0
aI0
aI0
aI0
aI0
aI0
aI0
aI0
aI0
aI0
aI0
aI0
aI0
aI0
aI0
aI0
aI0
aI0
aI0
aI0
aI0
aI0
aI0
aI0
aI0
aI0
aI0
aI0
aI0
aI0
aI0
aI0
aI0
aI0
aI0
aI0
aI0
aI0
aI0
aI0
aI0
aa(lp169
I0
aI0
aI0
aI0
aI0
aI0
aI0
aI0
aI0
aI0
aI0
aI0
aI0
aI0
aI0
aI0
aI0
aI0
aI0
aI0
aI0
aI0
aI0
aI0
aI0
aI0
aI0
aI0
aI0
aI0
aI0
aI0
aI0
aI0
aI0
aI0
aI0
aI0
aI0
aI0
aI0
aI0
aI0
aI0
aI0
aI0
aI0
aI0
aI0
aI0
aa(lp170
I0
aI0
aI0
aI0
aI0
aI0
aI0
aI0
aI0
aI0
aI0
aI0
aI0
aI0
aI0
aI0
aI0
aI0
aI0
aI0
aI0
aI0
aI0
aI0
aI0
aI0
aI0
aI0
aI0
aI0
aI0
aI0
aI0
aI0
aI0
aI0
aI0
aI0
aI0
aI0
aI0
aI0
aI0
aI0
aI0
aI0
aI0
aI0
aI0
aI0
aa(lp171
I0
aI0
aI0
aI0
aI0
aI0
aI0
aI0
aI0
aI0
aI0
aI0
aI0
aI0
aI0
aI0
aI0
aI0
aI0
aI0
aI0
aI0
aI0
aI0
aI0
aI0
aI0
aI0
aI0
aI0
aI0
aI0
aI0
aI0
aI0
aI0
aI0
aI0
aI0
aI0
aI0
aI0
aI0
aI0
aI0
aI0
aI0
aI0
aI0
aI0
aa(lp172
I0
aI0
aI0
aI0
aI0
aI0
aI0
aI0
aI0
aI0
aI0
aI0
aI0
aI0
aI0
aI0
aI0
aI0
aI0
aI0
aI0
aI0
aI0
aI0
aI0
aI0
aI0
aI0
aI0
aI0
aI0
aI0
aI0
aI0
aI0
aI0
aI0
aI0
aI0
aI0
aI0
aI0
aI0
aI0
aI0
aI0
aI0
aI0
aI0
aI0
aa(lp173
I0
aI0
aI0
aI0
aI0
aI0
aI0
aI0
aI0
aI0
aI0
aI0
aI0
aI0
aI0
aI0
aI0
aI0
aI0
aI0
aI0
aI0
aI0
aI0
aI0
aI0
aI0
aI0
aI0
aI0
aI0
aI0
aI0
aI0
aI0
aI0
aI0
aI0
aI0
aI0
aI0
aI0
aI0
aI0
aI0
aI0
aI0
aI0
aI0
aI0
aa(lp174
I0
aI0
aI0
aI0
aI0
aI0
aI0
aI0
aI0
aI0
aI0
aI0
aI0
aI0
aI0
aI0
aI0
aI0
aI0
aI0
aI0
aI0
aI0
aI0
aI0
aI0
aI0
aI0
aI0
aI0
aI0
aI0
aI0
aI0
aI0
aI0
aI0
aI0
aI0
aI0
aI0
aI0
aI0
aI0
aI0
aI0
aI0
aI0
aI0
aI0
aa(lp175
I0
aI0
aI0
aI0
aI0
aI0
aI0
aI0
aI0
aI0
aI0
aI0
aI0
aI0
aI0
aI0
aI0
aI0
aI0
aI0
aI0
aI0
aI0
aI0
aI0
aI0
aI0
aI0
aI0
aI0
aI0
aI0
aI0
aI0
aI0
aI0
aI0
aI0
aI0
aI0
aI0
aI0
aI0
aI0
aI0
aI0
aI0
aI0
aI0
aI0
aa(lp176
I0
aI0
aI0
aI0
aI0
aI0
aI0
aI0
aI0
aI0
aI0
aI0
aI0
aI0
aI0
aI0
aI0
aI0
aI0
aI0
aI0
aI0
aI0
aI0
aI0
aI0
aI0
aI0
aI0
aI0
aI0
aI0
aI0
aI0
aI0
aI0
aI0
aI0
aI0
aI0
aI0
aI0
aI0
aI0
aI0
aI0
aI0
aI0
aI0
aI0
aa(lp177
I0
aI0
aI0
aI0
aI0
aI0
aI0
aI0
aI0
aI0
aI0
aI0
aI0
aI0
aI0
aI0
aI0
aI0
aI0
aI0
aI0
aI0
aI0
aI0
aI0
aI0
aI0
aI0
aI0
aI0
aI0
aI0
aI0
aI0
aI0
aI0
aI0
aI0
aI0
aI0
aI0
aI0
aI0
aI0
aI0
aI0
aI0
aI0
aI0
aI0
aa(lp178
I0
aI0
aI0
aI0
aI0
aI0
aI0
aI0
aI0
aI0
aI0
aI0
aI0
aI0
aI0
aI0
aI0
aI0
aI0
aI0
aI0
aI0
aI0
aI0
aI0
aI0
aI0
aI0
aI0
aI0
aI0
aI0
aI0
aI0
aI0
aI0
aI0
aI0
aI0
aI0
aI0
aI0
aI0
aI0
aI0
aI0
aI0
aI0
aI0
aI0
aa(lp179
I0
aI0
aI0
aI0
aI0
aI0
aI0
aI0
aI0
aI0
aI0
aI0
aI0
aI0
aI0
aI0
aI0
aI0
aI0
aI0
aI0
aI0
aI0
aI0
aI0
aI0
aI0
aI0
aI0
aI0
aI0
aI0
aI0
aI0
aI0
aI0
aI0
aI0
aI0
aI0
aI0
aI0
aI0
aI0
aI0
aI0
aI0
aI0
aI0
aI0
aasS'roomsToUpdate'
p180
(lp181
(iCode.Engine.DungeonGenerator
DungeonRoom
p182
(dp183
S'isStairRoom'
p184
I00
sS'spawnableTiles'
p185
(lp186
(I34
I19
tp187
a(I34
I20
tp188
a(I34
I21
tp189
a(I35
I19
tp190
a(I36
I19
tp191
asS'neighbours'
p192
(lp193
sS'traps'
p194
(lp195
sg127
I1
sS'climateTypes'
p196
(lp197
g81
ag81
ag81
ag81
ag81
asS'forceEmpty'
p198
I00
sS'encounterInitialized'
p199
I01
sS'lastSpawn'
p200
I1368101978
sS'pos'
p201
(lp202
I34
aI19
asS'units'
p203
(lp204
ccopy_reg
_reconstructor
p205
(cUnits
EnemyUnit
p206
c__builtin__
object
p207
Ntp208
Rp209
(dp210
S'attackMoveTarget'
p211
NsS'stunTime'
p212
I0
sS'startAng'
p213
F1.8188111018417965
sS'buffs'
p214
(iCode.Units.Buffs
BuffStruct
p215
(dp216
S'unit'
p217
g209
sg214
(lp218
sbsS'lastPos'
p219
(lp220
F5519.0816220654897
aF3428.7108502472597
asS'frame'
p221
F0.40000000000000002
sS'offset'
p222
I0
sS'frameRate'
p223
F0.40000000000000002
sg201
(lp224
F5519.0816220654897
aF3428.7108502472597
asS'abilList'
p225
(lp226
(iCode.Units.Abilities
EnemyProjectileShotAbil
p227
(dp228
S'projectileSpeed'
p229
I1
sS'isSpell'
p230
I00
sS'pic'
p231
S'SlugShot'
p232
sS'parameters'
p233
(dp234
S'cooldown'
p235
(lp236
S'100'
p237
asS'damageType'
p238
(lp239
S'3'
p240
asS'pic'
p241
(lp242
g232
asS'speed'
p243
(lp244
g74
assS'hitsAllies'
p245
I00
sS'level'
p246
I0
sS'hitsEnemies'
p247
I01
sS'animationOverride'
p248
(lp249
sS'timeTaken'
p250
I30
sS'damage'
p251
I5
sS'range'
p252
I80
sS'cooldown'
p253
(lp254
I0
aI100
asS'user'
p255
g209
sS'DamageType'
p256
I3
sS'owner'
p257
g209
sS'hitFrames'
p258
(lp259
I2
asS'hitsUser'
p260
I00
sbasS'alerted'
p261
I99
sS'scanType'
p262
S'Passive'
p263
sS'reachedTarget'
p264
I00
sS'casting'
p265
I00
sS'startPos'
p266
(lp267
I5906
aI3067
asS'targAng'
p268
F2.6294678613806175
sS'speed'
p269
(lp270
F-0.0010338340934006255
aF0.99999946559339081
asS'moveTarget'
p271
(I276
I165
tp272
sS'currState'
p273
S'dead'
p274
sg125
I10
sS'disabledCount'
p275
I0
sS'damageTime'
p276
I0
sS'nextDistanceCheck'
p277
I3
sS'angle'
p278
F0.23514952871338735
sS'enemyType'
p279
S'Slug'
p280
sS'walkList'
p281
(lp282
(I276
I165
tp283
a(I276
I164
tp284
a(I276
I163
tp285
a(I276
I162
tp286
a(I276
I161
tp287
asg127
I1
sS'attackCooldown'
p288
I0
sS'selected'
p289
I00
sS'maxHealth'
p290
I20
sS'sameAttackTime'
p291
(lp292
I8
aI70
asS'damageAngle'
p293
F0.23514952871338735
sS'itemHeld'
p294
I0
sS'attackMoveOffset'
p295
(lp296
F-41.53627982820359
aF27.219252442176852
asS'stunFactor'
p297
F0.11200000000000054
sS'health'
p298
F0.0
sS'lastHitBy'
p299
g205
(cUnits
PlayerUnit
p300
g207
Ntp301
Rp302
(dp303
S'lastHit'
p304
I558
sg212
I0
sS'lastHitTargets'
p305
(lp306
(iUnits
TargetDummy
p307
(dp308
g304
I0
sg125
I5
sS'readyToSleep'
p309
I00
sg201
(lp310
I5902
aI3316
asg127
I1
sbasg214
(iCode.Units.Buffs
BuffStruct
p311
(dp312
g217
g302
sg214
(lp313
sbsg219
(lp314
F5526.0009999999947
aF3616.9270569025971
asg221
F1.4000000000000001
sg223
F0.10000000000000001
sg201
(lp315
F5526.0009999999947
aF3616.9270569025971
asg225
(lp316
(iCode.Units.Abilities
BasicAttack
p317
(dp318
g230
I00
sg245
I00
sg246
I0
sg247
I01
sg248
(lp319
sg250
I2
sg252
I20
sg253
(lp320
I0
aI0
asg255
Nsg229
I8
sg257
g302
sg258
(lp321
I0
asg260
I00
sbasS'inPortal'
p322
I00
sS'favour'
p323
(iCode.Units.Gods
FavourStruct
p324
(dp325
S'gods'
p326
(lp327
(iCode.Units.Gods
Nature
p328
(dp329
S'unitLastCoord'
p330
(I278
I203
tp331
sS'maxFlowerRepititions'
p332
I20
sS'unitLastPos'
p333
(lp334
F5526.0009999999947
aF3616.9270569025971
asS'worshipTime'
p335
I0
sS'worshipPos'
p336
(lp337
F5526.0009999999947
aF3616.9270569025971
asS'interactedAt'
p338
(dp339
sS'beingWorshipped'
p340
I00
sg323
F-1.6170195773276281
sS'worshippedAt'
p341
(dp342
sg217
g302
sS'worshipFrame'
p343
I0
sS'flowerRepititions'
p344
I4
sba(iCode.Units.Gods
Water
p345
(dp346
g330
(lp347
I0
aI0
asg332
I20
sg333
(lp348
F5526.0009999999947
aF3616.9270569025971
asg335
I0
sg336
(lp349
F5526.0009999999947
aF3616.9270569025971
asg338
(dp350
sg340
I00
sg323
F-1.3399999999999825
sg341
(dp351
sg217
g302
sg343
I0
sg344
I0
sba(iCode.Units.Gods
Death
p352
(dp353
g330
(lp354
I0
aI0
asg332
I20
sg333
(lp355
F5526.0009999999947
aF3616.9270569025971
asg335
I0
sg336
(lp356
F5526.0009999999947
aF3616.9270569025971
asg338
(dp357
sg340
I00
sg323
F1.070000000000001
sg341
(dp358
sg217
g302
sg343
I0
sg344
I0
sbasS'nextMoveTick'
p359
I14
sg217
g302
sbsS'moveState'
p360
g261
sS'selectedAbil'
p361
I2
sS'guilds'
p362
(iCode.Units.Guilds
GuildLevels
p363
(dp364
S'activeGuild'
p365
I1
sg362
(lp366
(iCode.Units.Guilds
Guild
p367
(dp368
S'nextAbilityAt'
p369
I5
sg246
I4
sS'levelChanged'
p370
I00
sS'targetExperience'
p371
F39.835440310511672
sS'experience'
p372
F39.835440310511672
sS'guildID'
p373
I0
sg217
g302
sba(iCode.Units.Guilds
Guild
p374
(dp375
g369
I2
sg246
I2
sg370
I00
sg371
F14.16455968948776
sg372
F14.16455968948776
sg373
I1
sg217
g302
sbasg217
g302
sbsS'attackSide'
p376
I0
sg265
I00
sg266
(lp377
I0
aI0
asg269
(lp378
I0
aI0
asS'spawned'
p379
I01
sg273
S'idle'
p380
sg125
I10
sg275
I0
sg276
I0
sg278
F1.5707963267948966
sS'targetHealth'
p381
F45.0
sg127
I1
sg288
I0
sg289
I00
sg290
I45
sg293
I0
sS'equipment'
p382
(iCode.Units.Equipment
Equipment
p383
(dp384
S'cash'
p385
F276.72503014318249
sS'cachedStats'
p386
(dp387
S'mmoveSpeed'
p388
(lp389
I148
aF1.1000000000000001
asS'knockbackResistance'
p390
(lp391
I148
aI0
asS'RESISTANCES'
p392
(lp393
I148
a(lp394
F0.0
aF0.0
aF0.0
aF0.0
aF0.0
aF0.0
aF0.0
aF0.0
aF0.0
aF0.0
aasS'moveSpeed'
p395
(lp396
I148
aF4.0999999999999996
asS'attack'
p397
(lp398
I148
aI17
asS'defense'
p399
(lp400
I148
aI27
asg298
(lp401
I148
aI0
asS'KEYWORDS'
p402
(dp403
S'Shield'
p404
(lp405
I148
aI0
asS'WaterWalking'
p406
(lp407
I147
aI0
asssS'inventory'
p408
(lp409
(iCode.Units.Equipment
Item
p410
(dp411
g257
g302
sS'attributes'
p412
(dp413
S'RESISTANCES'
p414
(lp415
F0.0
aF0.0
aF0.0
aF0.0
aF0.0
aF0.0
aF0.0
aF0.0
aF0.0
aF0.0
asS'MOVESPEED'
p416
F1.1000000000000001
sS'STUNFACTOR'
p417
F1.0
sS'KEYWORDS'
p418
(dp419
sS'ABILITY'
p420
NsS'MAXUNITSHIT'
p421
I2
sS'SLOTS'
p422
(lp423
I0
aI1
asS'ICON'
p424
(lp425
I0
aI0
asS'BASICATTACK'
p426
(iCode.Units.Abilities
BasicAttack
p427
(dp428
g230
I00
sg245
I00
sg246
I0
sg247
I01
sg248
(lp429
sg250
I2
sg252
I20
sg253
(lp430
I0
aI0
asg255
Nsg229
I8
sg257
g302
sg258
(lp431
I0
asg260
I00
sbsS'KNOCKBACK'
p432
F0.69999999999999996
sS'RANGE'
p433
I50
sS'COOLDOWN'
p434
I20
sS'DESCRIPTION'
p435
S'Wood Dagger'
p436
sS'MULTISLOT'
p437
I00
sS'ITEMTYPE'
p438
S'weapon'
p439
sS'DAMAGETYPE'
p440
I1
sS'DAMAGE'
p441
F0.69999999999999996
sS'MELEE'
p442
I01
sS'ATTACK'
p443
I5
sS'DEFENSE'
p444
I0
sS'PROJECTILE'
p445
S''
p446
sS'SPEED'
p447
I20
ssba(iCode.Units.Equipment
Item
p448
(dp449
g257
g302
sg412
(dp450
g414
g415
sg416
F1.1000000000000001
sg417
F1.0
sg418
g419
sg420
Nsg421
I2
sg422
g423
sg424
g425
sg426
(iCode.Units.Abilities
BasicAttack
p451
(dp452
g230
I00
sg245
I00
sg246
I0
sg247
I01
sg248
(lp453
I5
aI6
aI7
ag380
asg250
I2
sg252
I20
sg253
(lp454
I0
aI0
asg255
g302
sg229
I8
sg257
g302
sg258
(lp455
I0
asg260
I00
sbsg432
F0.69999999999999996
sg433
I50
sg434
I20
sg435
g436
sg437
I00
sg438
g439
sg440
I1
sg441
F0.69999999999999996
sg442
I01
sg443
I5
sg444
I0
sg445
g446
sg447
I20
ssba(iCode.Units.Equipment
Item
p456
(dp457
g257
g302
sg412
(dp458
g414
g415
sg416
F1.1000000000000001
sg417
F1.0
sg418
g419
sg420
Nsg421
I2
sg422
g423
sg424
g425
sg426
(iCode.Units.Abilities
BasicAttack
p459
(dp460
g230
I00
sg245
I00
sg246
I0
sg247
I01
sg248
(lp461
I10
aI11
aI12
ag380
asg250
I2
sg252
I20
sg253
(lp462
I20
aI0
asg255
g302
sg229
I8
sg257
g302
sg258
(lp463
I0
asg260
I00
sbsg432
F0.69999999999999996
sg433
I50
sg434
I20
sg435
g436
sg437
I00
sg438
g439
sg440
I1
sg441
F0.69999999999999996
sg442
I01
sg443
I5
sg444
I0
sg445
g446
sg447
I20
ssba(iCode.Units.Equipment
Item
p464
(dp465
g257
g302
sg412
(dp466
S'RESISTANCES'
p467
(lp468
F0.0
aF0.0
aF0.0
aF0.0
aF0.0
aF0.0
aF0.0
aF0.0
aF0.0
aF0.0
asS'MOVESPEED'
p469
F1.0
sS'STUNFACTOR'
p470
F0.5
sS'KEYWORDS'
p471
(dp472
sS'ABILITY'
p473
NsS'MAXUNITSHIT'
p474
I2
sS'SLOTS'
p475
(lp476
I0
aI1
asS'ICON'
p477
(lp478
I0
aI1
asS'BASICATTACK'
p479
(iCode.Units.Abilities
BasicAttack
p480
(dp481
g230
I00
sg245
I00
sg246
I0
sg247
I01
sg248
(lp482
sg250
I2
sg252
I20
sg253
(lp483
I0
aI0
asg255
Nsg229
I8
sg257
g302
sg258
(lp484
I0
asg260
I00
sbsS'KNOCKBACK'
p485
F1.0
sS'RANGE'
p486
I160
sS'COOLDOWN'
p487
I40
sg435
S'Pine Bow'
p488
sS'MULTISLOT'
p489
I01
sS'ITEMTYPE'
p490
S'weapon'
p491
sS'DAMAGETYPE'
p492
I2
sS'DAMAGE'
p493
F1.0
sS'MELEE'
p494
I00
sS'ATTACK'
p495
I0
sS'DEFENSE'
p496
I-5
sS'PROJECTILE'
p497
S'Arrow'
p498
sS'SPEED'
p499
I30
ssba(iCode.Units.Equipment
Item
p500
(dp501
g257
g302
sg412
(dp502
S'MULTISLOT'
p503
I00
sS'KNOCKBACK'
p504
F0.0
sS'ITEMTYPE'
p505
S'helm'
p506
sS'MOVESPEED'
p507
F1.0
sS'DAMAGETYPE'
p508
I0
sS'RESISTANCES'
p509
(lp510
F0.0
aF0.0
aF0.0
aF0.0
aF0.0
aF0.0
aF0.0
aF0.0
aF0.0
aF0.0
asS'ICON'
p511
(lp512
I1
aI0
asS'DAMAGE'
p513
F1.0
sS'MELEE'
p514
I00
sS'ATTACK'
p515
I0
sS'DEFENSE'
p516
I5
sS'STUNFACTOR'
p517
F0.0
sS'PROJECTILE'
p518
S'None'
p519
sS'KEYWORDS'
p520
(dp521
sS'MAXUNITSHIT'
p522
I0
sS'SLOTS'
p523
(lp524
I2
asg435
S'Fancy Hat'
p525
sS'SPEED'
p526
I0
sS'BASICATTACK'
p527
NsS'RANGE'
p528
I0
sS'ABILITY'
p529
NssbasS'baseAttack'
p530
(iCode.Units.Abilities
BasicAttack
p531
(dp532
g230
I00
sg245
I00
sg246
I0
sg247
I01
sg248
(lp533
sg250
I2
sg252
I20
sg253
(lp534
I0
aI0
asg255
Nsg229
I8
sg257
g302
sg258
(lp535
I0
asg260
I00
sbsS'equipped'
p536
(lp537
(iCode.Units.Equipment
Item
p538
(dp539
g257
g302
sg412
(dp540
S'RESISTANCES'
p541
(lp542
F0.0
aF0.0
aF0.0
aF0.0
aF0.0
aF0.0
aF0.0
aF0.0
aF0.0
aF0.0
asS'MOVESPEED'
p543
F1.0
sS'STUNFACTOR'
p544
F1.0
sS'KEYWORDS'
p545
(dp546
sS'ABILITY'
p547
NsS'MAXUNITSHIT'
p548
I3
sS'SLOTS'
p549
(lp550
I0
aI1
asS'ICON'
p551
(lp552
I0
aI2
asS'BASICATTACK'
p553
(iCode.Units.Abilities
BasicAttack
p554
(dp555
g230
I00
sg245
I00
sg246
I0
sg247
I01
sg248
(lp556
I5
aI6
aI7
ag380
asg250
I2
sg252
I20
sg253
(lp557
I0
aI0
asg255
g302
sg229
I8
sg257
g302
sg258
(lp558
I0
asg260
I00
sbsS'KNOCKBACK'
p559
F1.0
sS'RANGE'
p560
I80
sS'COOLDOWN'
p561
I40
sg435
S'Wood Sword'
p562
sS'MULTISLOT'
p563
I00
sS'ITEMTYPE'
p564
S'weapon'
p565
sS'DAMAGETYPE'
p566
I1
sS'DAMAGE'
p567
F1.0
sS'MELEE'
p568
I01
sS'ATTACK'
p569
I7
sS'DEFENSE'
p570
I3
sS'PROJECTILE'
p571
g446
sS'SPEED'
p572
I30
ssbaNaNaNa(iCode.Units.Equipment
Item
p573
(dp574
g257
g302
sg412
(dp575
S'MULTISLOT'
p576
I00
sS'KNOCKBACK'
p577
F0.0
sS'ITEMTYPE'
p578
S'gloves'
p579
sS'MOVESPEED'
p580
F1.0
sS'DAMAGETYPE'
p581
I0
sS'RESISTANCES'
p582
(lp583
F0.0
aF0.0
aF0.0
aF0.0
aF0.0
aF0.0
aF0.0
aF0.0
aF0.0
aF0.0
asS'ICON'
p584
(lp585
I0
aI0
asS'DAMAGE'
p586
F1.0
sS'MELEE'
p587
I00
sS'ATTACK'
p588
I0
sS'DEFENSE'
p589
I5
sS'STUNFACTOR'
p590
F0.0
sS'PROJECTILE'
p591
S'None'
p592
sS'KEYWORDS'
p593
(dp594
sS'MAXUNITSHIT'
p595
I0
sS'SLOTS'
p596
(lp597
I4
asg435
S'Leather Gloves'
p598
sS'SPEED'
p599
I0
sS'BASICATTACK'
p600
NsS'RANGE'
p601
I0
sS'ABILITY'
p602
Nssba(iCode.Units.Equipment
Item
p603
(dp604
g257
g302
sg412
(dp605
S'MULTISLOT'
p606
I00
sS'KNOCKBACK'
p607
F0.0
sS'ITEMTYPE'
p608
S'boots'
p609
sS'MOVESPEED'
p610
F1.0
sS'DAMAGETYPE'
p611
I0
sS'RESISTANCES'
p612
(lp613
F0.0
aF0.0
aF0.0
aF0.0
aF0.0
aF0.0
aF0.0
aF0.0
aF0.0
aF0.0
asS'ICON'
p614
(lp615
I3
aI0
asS'DAMAGE'
p616
F1.0
sS'MELEE'
p617
I00
sS'ATTACK'
p618
I0
sS'DEFENSE'
p619
I9
sS'STUNFACTOR'
p620
F0.0
sS'PROJECTILE'
p621
S'None'
p622
sS'KEYWORDS'
p623
(dp624
sS'MAXUNITSHIT'
p625
I0
sS'SLOTS'
p626
(lp627
I5
asg435
S'Hard Leather Boots'
p628
sS'SPEED'
p629
I0
sS'BASICATTACK'
p630
NsS'RANGE'
p631
I0
sS'ABILITY'
p632
NssbaNa(iCode.Units.Equipment
Item
p633
(dp634
g257
g302
sg412
(dp635
S'MULTISLOT'
p636
I00
sS'KNOCKBACK'
p637
F0.0
sS'ITEMTYPE'
p638
S'ring'
p639
sS'MOVESPEED'
p640
F1.1000000000000001
sS'DAMAGETYPE'
p641
I0
sS'RESISTANCES'
p642
(lp643
F0.0
aF0.0
aF0.0
aF0.0
aF0.0
aF0.0
aF0.0
aF0.0
aF0.0
aF0.0
asS'ICON'
p644
(lp645
I2
aI0
asS'DAMAGE'
p646
F1.0
sS'MELEE'
p647
I00
sS'ATTACK'
p648
I10
sS'DEFENSE'
p649
I10
sS'STUNFACTOR'
p650
F0.0
sS'PROJECTILE'
p651
S'None'
p652
sS'KEYWORDS'
p653
(dp654
sS'MAXUNITSHIT'
p655
I0
sS'SLOTS'
p656
(lp657
I7
aI8
asg435
S'Ring of the Warrior'
p658
sS'SPEED'
p659
I0
sS'BASICATTACK'
p660
NsS'RANGE'
p661
I0
sS'ABILITY'
p662
NssbaNaNaNasg257
g302
sS'currentHand'
p663
I0
sS'equipmentIteration'
p664
I148
sbsg297
I0
sg298
F45.0
sS'abilCurrentlyUsing'
p665
g554
sg294
NsS'picture'
p666
S'Thief'
p667
sS'animationFrames'
p668
(lp669
I1
aI1
ag380
asS'angleFacing'
p670
F1.5707963267948966
sS'onGround'
p671
I00
sS'attacked'
p672
I01
sS'rageTable'
p673
(dp674
sg309
I00
sS'attackBonuses'
p675
(dp676
sS'randSeed'
p677
F0.46564382100422197
sS'abilsSelected'
p678
(lp679
(iCode.Units.Abilities
PowerAttack
p680
(dp681
g230
I00
sg245
I00
sg246
I0
sg247
I01
sg248
(lp682
I5
aI5
aI6
aI7
aI8
aI9
ag380
asg250
I60
sg252
I20
sg253
(lp683
I0
aI160
asg255
g302
sg229
I8
sg257
g302
sg258
(lp684
I2
asg260
I00
sba(iCode.Units.Abilities
TripleAttack
p685
(dp686
g230
I00
sg245
I00
sg246
I0
sg247
I01
sg248
(lp687
I5
aI6
aI7
aI10
aI11
aI12
aI5
aI6
aI7
ag380
asg250
I80
sg252
I20
sg253
(lp688
I0
aI120
asg255
Nsg229
I8
sg257
g302
sg258
(lp689
I1
aI4
aI7
asg260
I00
sba(iCode.Units.Abilities
Smash
p690
(dp691
g230
I00
sg245
I00
sg246
I0
sg247
I01
sg248
(lp692
I5
aI6
aI7
aI8
aI9
ag380
asg250
I15
sg252
I20
sg253
(lp693
I0
aI80
asg255
g302
sg229
I8
sg257
g302
sg258
(lp694
I0
asg260
I00
sbasS'controller'
p695
I1
sS'backupSeed'
p696
F0.46564382100422197
sS'stats'
p697
(dp698
g390
F0.0
sg397
I100
sg399
I100
sg298
I10
ssS'logicTickIn'
p699
I2
sS'name'
p700
S'asdf'
p701
sS'abilsKnown'
p702
(lp703
S'PowerAttack'
p704
aS'TripleAttack'
p705
aS'Smash'
p706
aS'SplitAttack'
p707
aS'MagicMissile'
p708
asS'attackCallback'
p709
NsS'knockback'
p710
(lp711
I0
aI0
asS'target'
p712
g307
sg258
(lp713
sg246
I1
sS'controlled'
p714
I1
sS'abilSelected'
p715
I1
sS'enabled'
p716
I01
sg252
I5
sS'team'
p717
I1
sS'respawnTimer'
p718
I0
sS'targetDummy'
p719
g307
sS'lastDamageAmount'
p720
I0
sbsg304
I561
sg666
S'Slug'
p721
sg668
(lp722
I6
aI6
ag274
asg670
F0.23514952871338735
sS'scanAngle'
p723
F3.1415926535897931
sg671
I00
sg672
I01
sg673
(dp724
sg309
I00
sg675
(dp725
sg677
F0.53476085499561832
sS'investigateAngle'
p726
I0
sg696
F0.16274710907591161
sg697
(dp727
g666
g721
sg399
I100
sS'ability'
p728
(lp729
(lp730
cCode.Units.Abilities
EnemyProjectileShotAbil
p731
a(lp732
S'-pic'
p733
ag232
aS'-cooldown'
p734
ag237
aS'-speed'
p735
ag74
aS'-damageType'
p736
ag240
aaasg390
F0.20000000000000001
sS'treasureChance'
p737
F0.10000000000000001
sS'walkSpeed'
p738
I2
sS'chargeDist'
p739
I80
sS'resistances'
p740
(lp741
F0.0
aF-0.10000000000000001
aF0.10000000000000001
aF0.5
aF0.0
aF-0.20000000000000001
aF0.29999999999999999
aF-0.20000000000000001
aF0.20000000000000001
aF0.69999999999999996
asS'stunResistance'
p742
F0.20000000000000001
sg397
I120
sS'listenRad'
p743
I90
sg298
I20
sg372
I70
sS'activateRange'
p744
I230
sS'keywords'
p745
(dp746
S'WaterWalking'
p747
F0.29999999999999999
ssS'alertedListenRad'
p748
I200
sS'unitType'
p749
I1
ssg699
I3
sS'deathInvestigated'
p750
I00
sS'scanDeltaAng'
p751
I0
sg712
g302
sg709
Nsg710
(lp752
I0
aI0
asS'room'
p753
g182
sg258
(lp754
I2
asg246
I1
sS'scanTime'
p755
I0
sg716
I01
sS'patrolDest'
p756
(lp757
I276
aI165
asg252
I5
sg360
g261
sg717
I2
sS'scanDeltaTime'
p758
I12
sg720
I0
sg665
g227
sbag205
(g206
g207
Ntp759
Rp760
(dp761
g211
Nsg212
I0
sg213
F4.2653842342652295
sg214
(iCode.Units.Buffs
BuffStruct
p762
(dp763
g217
g760
sg214
(lp764
sbsg219
(lp765
F5477.5353955848286
aF3383.7375815231871
asg221
F0.80000000000000004
sg222
I0
sg223
F0.40000000000000002
sg201
(lp766
F5477.5353955848286
aF3383.7375815231871
asg225
(lp767
(iCode.Units.Abilities
EnemyProjectileShotAbil
p768
(dp769
g229
I3
sg230
I00
sg231
S'Slash'
p770
sg233
(dp771
S'damageType'
p772
(lp773
g74
asS'pic'
p774
(lp775
g770
asS'damage'
p776
(lp777
g74
asS'range'
p778
(lp779
S'55'
p780
asS'cooldown'
p781
(lp782
S'70'
p783
asS'speed'
p784
(lp785
g240
assg245
I00
sg246
I0
sg247
I01
sg248
(lp786
sg250
I30
sg251
F1.0
sg252
F55.0
sg253
(lp787
I0
aI70
asg255
g760
sg256
I1
sg257
g760
sg258
(lp788
I2
asg260
I00
sbasg261
I99
sg262
g263
sg264
I00
sg265
I00
sg266
(lp789
I5529
aI3183
asg268
F4.44041300618803
sg269
(lp790
I0
aI0
asg271
(I278
I175
tp791
sg273
g274
sg125
I10
sg275
I0
sg276
I0
sg277
I9
sg278
F-0.77039978460330583
sg279
S'Orc'
p792
sg281
(lp793
(I278
I175
tp794
a(I278
I174
tp795
a(I278
I173
tp796
a(I278
I172
tp797
a(I278
I171
tp798
a(I278
I170
tp799
a(I278
I169
tp800
a(I278
I168
tp801
a(I278
I167
tp802
a(I278
I166
tp803
a(I278
I165
tp804
a(I278
I164
tp805
a(I278
I163
tp806
a(I278
I162
tp807
a(I278
I161
tp808
a(I279
I160
tp809
asg127
I1
sg288
I0
sg289
I00
sg290
I20
sg291
(lp810
I32
aI70
asg293
F-0.77039978460330583
sg294
I0
sg295
(lp811
F-25.997635246220437
aF11.436758644389739
asg297
F0.91999999999999993
sg298
F0.0
sg299
g302
sg304
I242
sg666
S'Orc'
p812
sg668
g722
sg670
F5.5127855225762801
sg723
F0.0
sg671
I00
sg672
I01
sg673
(dp813
sg309
I00
sg675
(dp814
sg677
F0.45818681814333506
sg726
I0
sg696
F0.62900230662337708
sg697
(dp815
g666
g812
sg399
I80
sg728
(lp816
(lp817
g731
a(lp818
S'-pic'
p819
ag770
aS'-cooldown'
p820
ag783
aS'-speed'
p821
ag240
aS'-damage'
p822
ag74
aS'-range'
p823
ag780
aS'-damageType'
p824
ag74
aaasg390
I0
sg737
F0.080000000000000002
sg738
F2.5
sg739
I45
sg740
(lp825
F0.0
aF-0.20000000000000001
aF-0.20000000000000001
aF0.10000000000000001
aF0.0
aF-0.10000000000000001
aF-0.10000000000000001
aF0.0
aF0.0
aF-0.20000000000000001
asg742
I0
sg397
I80
sg743
I90
sg298
I20
sg372
I50
sg744
I230
sg745
(dp826
S'-'
p827
F0.0
ssg748
I200
sg749
I4
ssg699
I3
sg750
I00
sg751
I0
sg712
g302
sg709
Nsg710
(lp828
I0
aI0
asg753
g182
sg258
(lp829
sg246
I1
sg755
I0
sg716
I01
sg756
(lp830
I278
aI175
asg252
I5
sg360
g261
sg717
I2
sg758
I9
sg720
I0
sg665
g768
sbag205
(g206
g207
Ntp831
Rp832
(dp833
g211
Nsg212
I0
sg213
F0.14564874734771538
sg214
(iCode.Units.Buffs
BuffStruct
p834
(dp835
g217
g832
sg214
(lp836
sbsg219
(lp837
F5470.9833307579911
aF3406.7933774467247
asg221
F1.6000000000000001
sg222
I0
sg223
F0.40000000000000002
sg201
(lp838
F5470.9833307579911
aF3406.7933774467247
asg225
(lp839
(iCode.Units.Abilities
EnemyProjectileShotAbil
p840
(dp841
g229
I3
sg230
I00
sg231
g770
sg233
(dp842
S'damageType'
p843
(lp844
g74
asS'pic'
p845
(lp846
g770
asS'damage'
p847
(lp848
g74
asS'range'
p849
(lp850
g780
asS'cooldown'
p851
(lp852
g783
asS'speed'
p853
(lp854
g240
assg245
I00
sg246
I0
sg247
I01
sg248
(lp855
sg250
I30
sg251
F1.0
sg252
F55.0
sg253
(lp856
I0
aI70
asg255
g832
sg256
I1
sg257
g832
sg258
(lp857
I2
asg260
I00
sbasg261
I99
sg262
g263
sg264
I00
sg265
I00
sg266
(lp858
I5590
aI3118
asg268
F3.2959293628401838
sg269
(lp859
F-0.30881264414832604
aF-1.2112533801043115
asg271
(I279
I171
tp860
sg273
g274
sg125
I10
sg275
I0
sg276
I0
sg277
I7
sg278
F-1.5125179205220889
sg279
g792
sg281
(lp861
(I279
I171
tp862
a(I278
I171
tp863
asg127
I1
sg288
I0
sg289
I00
sg290
I20
sg291
(lp864
I34
aI70
asg293
F-1.5125179205220889
sg294
I0
sg295
(lp865
F-26.543806245027781
aF-8.9828332178986923
asg297
F0.91999999999999993
sg298
F0.0
sg299
g302
sg304
I759
sg666
g812
sg668
g722
sg670
F4.7706673866574976
sg723
F-0.0087517140333691502
sg671
I00
sg672
I01
sg673
(dp866
sg309
I00
sg675
(dp867
sg677
F0.50101776753850957
sg726
I0
sg696
F0.60149083032333273
sg697
(dp868
g666
g812
sS'treasurePackage'
p869
S'F1EasyEnemy'
p870
sg399
I80
sg728
g816
sg390
I0
sg737
F0.080000000000000002
sg738
F2.5
sg739
I45
sg740
g825
sg742
I0
sg397
I80
sg743
I90
sg298
I20
sg372
I50
sg744
I230
sg745
g826
sg748
I200
sg749
I4
ssg699
I3
sg750
I00
sg751
I0
sg712
g302
sg709
Nsg710
(lp871
I0
aI0
asg753
g182
sg258
(lp872
sg246
I1
sg755
I0
sg716
I01
sg756
(lp873
I279
aI171
asg252
I5
sg360
g261
sg717
I2
sg758
I17
sg720
I0
sg665
g840
sbag205
(g206
g207
Ntp874
Rp875
(dp876
g211
Nsg212
I0
sg213
F4.4620364413783289
sg214
(iCode.Units.Buffs
BuffStruct
p877
(dp878
g217
g875
sg214
(lp879
sbsg219
(lp880
F5545.033333977618
aF3427.5194107865759
asg221
F1.2000000000000002
sg222
I0
sg223
F0.40000000000000002
sg201
(lp881
F5545.033333977618
aF3427.5194107865759
asg225
(lp882
(iCode.Units.Abilities
EnemyProjectileShotAbil
p883
(dp884
g229
I3
sg230
I00
sg231
g770
sg233
(dp885
S'damageType'
p886
(lp887
g74
asS'pic'
p888
(lp889
g770
asS'damage'
p890
(lp891
g74
asS'range'
p892
(lp893
g780
asS'cooldown'
p894
(lp895
g783
asS'speed'
p896
(lp897
g240
assg245
I00
sg246
I0
sg247
I01
sg248
(lp898
sg250
I30
sg251
F1.0
sg252
F55.0
sg253
(lp899
I0
aI70
asg255
g875
sg256
I1
sg257
g875
sg258
(lp900
I2
asg260
I00
sbasg261
I99
sg262
g263
sg264
I00
sg265
I00
sg266
(lp901
I5803
aI3151
asg268
F2.6551485576590297
sg269
(lp902
F0.76711373704854058
aF0.98693288243498223
asg271
(I273
I175
tp903
sg273
g274
sg125
I10
sg275
I0
sg276
I0
sg277
I5
sg278
F1.6462044377057339
sg279
g792
sg281
(lp904
(I273
I175
tp905
a(I273
I174
tp906
a(I273
I173
tp907
a(I273
I172
tp908
a(I273
I171
tp909
a(I273
I170
tp910
a(I273
I169
tp911
a(I273
I168
tp912
asg127
I1
sg288
I0
sg289
I00
sg290
I20
sg291
(lp913
I16
aI70
asg293
F1.6462044377057339
sg294
I0
sg295
(lp914
F39.650507011969403
aF9.5913802529476673
asg297
F0.91999999999999993
sg298
F0.0
sg299
g302
sg304
I603
sg666
g812
sg668
g722
sg670
F1.6462044377057339
sg723
F3.1415926535897931
sg671
I00
sg672
I01
sg673
(dp915
sg309
I00
sg675
(dp916
sg677
F0.75758477402374436
sg726
I0
sg696
F0.61151811729800865
sg697
(dp917
g666
g812
sg399
I80
sg728
g816
sg390
I0
sg737
F0.080000000000000002
sg738
F2.5
sg739
I45
sg740
g825
sg742
I0
sg397
I80
sg743
I90
sg298
I20
sg372
I50
sg744
I230
sg745
g826
sg748
I200
sg749
I4
ssg699
I3
sg750
I00
sg751
I0
sg712
g302
sg709
Nsg710
(lp918
I0
aI0
asg753
g182
sg258
(lp919
sg246
I1
sg755
I0
sg716
I01
sg756
(lp920
I273
aI175
asg252
I5
sg360
g261
sg717
I2
sg758
I7
sg720
I0
sg665
g883
sbag205
(g206
g207
Ntp921
Rp922
(dp923
g211
Nsg212
I0
sg213
F0.42527410449581726
sg214
(iCode.Units.Buffs
BuffStruct
p924
(dp925
g217
g922
sg214
(lp926
sbsg219
(lp927
F5489.3670630059332
aF3402.163452621734
asg221
F1.6000000000000001
sg222
I0
sg223
F0.40000000000000002
sg201
(lp928
F5489.3670630059332
aF3402.163452621734
asg225
(lp929
(iCode.Units.Abilities
EnemyProjectileShotAbil
p930
(dp931
g229
I2
sg230
I00
sg231
S'GreenSlimeShot'
p932
sg233
(dp933
S'cooldown'
p934
(lp935
S'80'
p936
asS'damageType'
p937
(lp938
S'9'
p939
asS'pic'
p940
(lp941
g932
asS'speed'
p942
(lp943
g73
assg245
I00
sg246
I0
sg247
I01
sg248
(lp944
sg250
I30
sg251
I5
sg252
I80
sg253
(lp945
I0
aI80
asg255
g922
sg256
I9
sg257
g922
sg258
(lp946
I2
asg260
I00
sba(iCode.Units.Abilities
EnemyMultiShotAbil
p947
(dp948
g229
I1
sg230
I00
sg231
S'GreenSlimeShot'
p949
sg233
(dp950
S'cooldown'
p951
(lp952
S'400'
p953
asS'damageType'
p954
(lp955
g939
asS'pic'
p956
(lp957
g949
asS'speed'
p958
(lp959
g74
assg245
I00
sg246
I0
sg247
I01
sg248
(lp960
sg250
I30
sg251
I5
sg252
I80
sg253
(lp961
I0
aI400
asg255
g922
sg256
I9
sg257
g922
sg258
(lp962
I2
asS'numShots'
p963
I3
sg260
I00
sbasg261
I99
sg262
g263
sg264
I00
sg265
I00
sg266
(lp964
I5837
aI3134
asg268
F2.3682701480215202
sg269
(lp965
F-0.60279211145675282
aF-0.79789828322005407
asg271
(I279
I175
tp966
sg273
g274
sg125
I10
sg275
I0
sg276
I0
sg277
I2
sg278
F2.9326756963445813
sg279
S'GreenSlime'
p967
sg281
(lp968
(I279
I175
tp969
a(I279
I174
tp970
a(I279
I173
tp971
a(I279
I172
tp972
a(I279
I171
tp973
a(I279
I170
tp974
a(I279
I169
tp975
a(I279
I168
tp976
a(I279
I167
tp977
a(I279
I166
tp978
a(I279
I165
tp979
a(I279
I164
tp980
a(I279
I163
tp981
a(I279
I162
tp982
a(I279
I161
tp983
asg127
I1
sg288
I0
sg289
I00
sg290
I4
sg291
(lp984
I29
aI70
asg293
F2.9326756963445813
sg294
I0
sg295
(lp985
F-12.329181347232725
aF-59.330949274864871
asg297
F0.48000000000000009
sg298
F0.0
sg299
g302
sg304
I484
sg666
S'GreenSlime'
p986
sg668
g722
sg670
F2.9326756963445813
sg723
F3.1415926535897931
sg671
I00
sg672
I01
sg673
(dp987
sg309
I00
sg675
(dp988
sg677
F0.5974412724480711
sg726
I0
sg696
F0.91490216929280799
sg697
(dp989
g666
g986
sg399
I130
sg728
(lp990
(lp991
g731
a(lp992
S'-pic'
p993
ag932
aS'-cooldown'
p994
ag936
aS'-speed'
p995
ag73
aS'-damageType'
p996
ag939
aaa(lp997
cCode.Units.Abilities
EnemyMultiShotAbil
p998
a(lp999
S'-pic'
p1000
ag949
aS'-cooldown'
p1001
ag953
aS'-speed'
p1002
ag74
aS'-damageType'
p1003
ag939
aaasg390
I0
sg737
F0.080000000000000002
sg738
I2
sg739
I80
sg740
(lp1004
F0.0
aF0.69999999999999996
aF0.80000000000000004
aF0.40000000000000002
aF-0.5
aF-0.20000000000000001
aF-0.20000000000000001
aF-0.20000000000000001
aF-0.29999999999999999
aF-0.20000000000000001
asg742
I0
sg397
I80
sg743
I90
sg298
I4
sg372
I40
sg744
I230
sg745
(dp1005
S'WaterWalking'
p1006
F0.80000000000000004
ssg748
I200
sg749
I2
ssg699
I3
sg750
I00
sg751
I0
sg712
g302
sg709
Nsg710
(lp1007
I0
aI0
asg753
g182
sg258
(lp1008
I2
asg246
I1
sg755
I0
sg716
I01
sg756
(lp1009
I279
aI175
asg252
I5
sg360
g261
sg717
I2
sg758
I14
sg720
I0
sg665
g930
sbag205
(g206
g207
Ntp1010
Rp1011
(dp1012
g211
Nsg212
I0
sg213
F1.1254247244595612
sg214
(iCode.Units.Buffs
BuffStruct
p1013
(dp1014
g217
g1011
sg214
(lp1015
sbsg219
(lp1016
F5525.0151915162596
aF3374.7398339079305
asg221
F0.80000000000000004
sg222
I0
sg223
F0.40000000000000002
sg201
(lp1017
F5525.0151915162596
aF3374.7398339079305
asg225
(lp1018
(iCode.Units.Abilities
EnemyProjectileShotAbil
p1019
(dp1020
g229
I2
sg230
I00
sg231
g932
sg233
(dp1021
S'cooldown'
p1022
(lp1023
g936
asS'damageType'
p1024
(lp1025
g939
asS'pic'
p1026
(lp1027
g932
asS'speed'
p1028
(lp1029
g73
assg245
I00
sg246
I0
sg247
I01
sg248
(lp1030
sg250
I30
sg251
I5
sg252
I80
sg253
(lp1031
I0
aI80
asg255
g1011
sg256
I9
sg257
g1011
sg258
(lp1032
I2
asg260
I00
sba(iCode.Units.Abilities
EnemyMultiShotAbil
p1033
(dp1034
g229
I1
sg230
I00
sg231
g949
sg233
(dp1035
S'cooldown'
p1036
(lp1037
g953
asS'damageType'
p1038
(lp1039
g939
asS'pic'
p1040
(lp1041
g949
asS'speed'
p1042
(lp1043
g74
assg245
I00
sg246
I0
sg247
I01
sg248
(lp1044
sg250
I30
sg251
I5
sg252
I80
sg253
(lp1045
I0
aI400
asg255
g1011
sg256
I9
sg257
g1011
sg258
(lp1046
I2
asg963
I3
sg260
I00
sbasg261
I99
sg262
g263
sg264
I00
sg265
I00
sg266
(lp1047
I5579
aI3353
asg268
F0.42440249459562157
sg269
(lp1048
F-0.59995036940243229
aF0.80003722054282267
asg271
(I275
I155
tp1049
sg273
g274
sg125
I10
sg275
I0
sg276
I0
sg277
I8
sg278
F1.823620932024288
sg279
g967
sg281
(lp1050
(I275
I155
tp1051
asg127
I1
sg288
I0
sg289
I00
sg290
I4
sg291
(lp1052
I20
aI70
asg293
F1.823620932024288
sg294
I0
sg295
(lp1053
F-24.09458946706258
aF-32.349911998964586
asg297
F0.7200000000000002
sg298
F0.0
sg299
g302
sg304
I357
sg666
g986
sg668
g722
sg670
F1.823620932024288
sg723
F-1.5707963267948966
sg671
I00
sg672
I01
sg673
(dp1054
sg309
I00
sg675
(dp1055
sg677
F0.41471985609480344
sg726
I0
sg696
F0.40852472902454551
sg697
(dp1056
g666
g986
sg399
I130
sg728
g990
sg390
I0
sg737
F0.080000000000000002
sg738
I2
sg739
I80
sg740
g1004
sg742
I0
sg397
I80
sg743
I90
sg298
I4
sg372
I40
sg744
I230
sg745
g1005
sg748
I200
sg749
I2
ssg699
I3
sg750
I00
sg751
I0
sg712
g302
sg709
Nsg710
(lp1057
I0
aI0
asg753
g182
sg258
(lp1058
I2
asg246
I1
sg755
I44
sg716
I01
sg756
(I5838
I3107
tp1059
sg252
I5
sg360
g261
sg717
I2
sg758
I20
sg720
I0
sg665
g1019
sbag205
(g206
g207
Ntp1060
Rp1061
(dp1062
g211
Nsg212
I0
sg213
F4.2846505275529383
sg214
(iCode.Units.Buffs
BuffStruct
p1063
(dp1064
g217
g1061
sg214
(lp1065
sbsg219
(lp1066
F5552.3079749265198
aF3402.6658780594271
asg221
I0
sg222
I0
sg223
F0.40000000000000002
sg201
(lp1067
F5552.3079749265198
aF3402.6658780594271
asg225
(lp1068
(iCode.Units.Abilities
EnemyProjectileShotAbil
p1069
(dp1070
g229
I3
sg230
I00
sg231
g770
sg233
(dp1071
S'damageType'
p1072
(lp1073
g74
asS'pic'
p1074
(lp1075
g770
asS'damage'
p1076
(lp1077
g74
asS'range'
p1078
(lp1079
g780
asS'cooldown'
p1080
(lp1081
g783
asS'speed'
p1082
(lp1083
g240
assg245
I00
sg246
I0
sg247
I01
sg248
(lp1084
sg250
I30
sg251
F1.0
sg252
F55.0
sg253
(lp1085
I0
aI70
asg255
g1061
sg256
I1
sg257
g1061
sg258
(lp1086
I2
asg260
I00
sbasg261
I99
sg262
g263
sg264
I00
sg265
I00
sg266
(lp1087
I5546
aI3425
asg268
F0.48047113502163563
sg269
(lp1088
F0.6689053024187207
aF1.0559667117840978
asg271
(I273
I167
tp1089
sg273
g274
sg125
I10
sg275
I0
sg276
I0
sg277
I5
sg278
F1.6217142015884174
sg279
g792
sg281
(lp1090
(I273
I167
tp1091
a(I273
I166
tp1092
a(I273
I165
tp1093
a(I273
I164
tp1094
a(I273
I163
tp1095
a(I273
I162
tp1096
a(I274
I161
tp1097
a(I275
I160
tp1098
a(I276
I159
tp1099
a(I277
I158
tp1100
a(I278
I157
tp1101
asg127
I1
sg288
I0
sg289
I00
sg290
I20
sg291
(lp1102
I2
aI70
asg293
F1.6217142015884174
sg294
I0
sg295
(lp1103
F44.568429779027547
aF-4.414875632456055
asg297
F0.87999999999999989
sg298
F0.0
sg299
g302
sg304
I600
sg666
g812
sg668
g722
sg670
F1.6217142015884174
sg723
F-1.5707955171371619
sg671
I00
sg672
I01
sg673
(dp1104
sg309
I00
sg675
(dp1105
sg677
F0.1814018954435993
sg726
I0
sg696
F0.36982331842771643
sg697
(dp1106
g666
g812
sg399
I80
sg728
g816
sg390
I0
sg737
F0.080000000000000002
sg738
F2.5
sg739
I45
sg740
g825
sg742
I0
sg749
I4
sg743
I90
sg298
I20
sg372
I50
sg744
I230
sg745
g826
sg748
I200
sg397
I80
ssg699
I3
sg750
I00
sg751
I0
sg712
g302
sg709
Nsg710
(lp1107
I0
aI0
asg753
g182
sg258
(lp1108
sg246
I1
sg755
I0
sg716
I01
sg756
(lp1109
I273
aI167
asg252
I5
sg360
g261
sg717
I2
sg758
I8
sg720
I0
sg665
g1069
sbag205
(g206
g207
Ntp1110
Rp1111
(dp1112
g211
Nsg212
I0
sg213
F1.5438228026139051
sg214
(iCode.Units.Buffs
BuffStruct
p1113
(dp1114
g217
g1111
sg214
(lp1115
sbsg219
(lp1116
F5489.6142274177228
aF3397.5900899261292
asg221
I0
sg222
I0
sg223
F0.40000000000000002
sg201
(lp1117
F5489.6142274177228
aF3397.5900899261292
asg225
(lp1118
(iCode.Units.Abilities
EnemyProjectileShotAbil
p1119
(dp1120
g229
I3
sg230
I00
sg231
g770
sg233
(dp1121
S'damageType'
p1122
(lp1123
g74
asS'pic'
p1124
(lp1125
g770
asS'damage'
p1126
(lp1127
g74
asS'range'
p1128
(lp1129
g780
asS'cooldown'
p1130
(lp1131
g783
asS'speed'
p1132
(lp1133
g240
assg245
I00
sg246
I0
sg247
I01
sg248
(lp1134
sg250
I30
sg251
F1.0
sg252
F55.0
sg253
(lp1135
I0
aI70
asg255
g1111
sg256
I1
sg257
g1111
sg258
(lp1136
I2
asg260
I00
sbasg261
I99
sg262
g263
sg264
I00
sg265
I00
sg266
(lp1137
I5495
aI3314
asg268
F-0.38340546413052268
sg269
(lp1138
F-1.1366144934623648
aF0.52019947448194515
asg271
(I277
I169
tp1139
sg273
g274
sg125
I10
sg275
I0
sg276
I0
sg277
I8
sg278
F1.9479225548496268
sg279
g792
sg281
(lp1140
(I277
I169
tp1141
asg127
I1
sg288
I0
sg289
I00
sg290
I20
sg291
(lp1142
I42
aI70
asg293
F1.9479225548496268
sg294
I0
sg295
(lp1143
F-34.328759533389231
aF-20.832719465027843
asg297
F0.91999999999999993
sg298
F0.0
sg299
g302
sg304
I640
sg666
g812
sg668
g722
sg670
F1.9479225548496268
sg723
F1.5438228026139051
sg671
I00
sg672
I01
sg673
(dp1144
sg309
I00
sg675
(dp1145
sg677
F0.090427450133754861
sg726
I0
sg696
F0.3860046882738144
sg697
(dp1146
g666
g812
sg399
I80
sg728
g816
sg390
I0
sg737
F0.080000000000000002
sg738
F2.5
sg739
I45
sg740
g825
sg742
I0
sg397
I80
sg743
I90
sg298
I20
sg372
I50
sg744
I230
sg745
g826
sg748
I200
sg749
I4
ssg699
I3
sg750
I00
sg751
I0
sg712
g302
sg709
Nsg710
(lp1147
I0
aI0
asg753
g182
sg258
(lp1148
sg246
I1
sg755
I76
sg716
I01
sg756
(I5479
I3097
tp1149
sg252
I5
sg360
g261
sg717
I2
sg758
I21
sg720
I0
sg665
g1119
sbag205
(g206
g207
Ntp1150
Rp1151
(dp1152
g211
Nsg212
I0
sg213
F4.8452081478717854
sg214
(iCode.Units.Buffs
BuffStruct
p1153
(dp1154
g217
g1151
sg214
(lp1155
sbsg219
(lp1156
F5534.7445288282888
aF3374.3520145051166
asg221
F1.6000000000000001
sg222
I0
sg223
F0.40000000000000002
sg201
(lp1157
F5534.7445288282888
aF3374.3520145051166
asg225
(lp1158
(iCode.Units.Abilities
EnemyProjectileShotAbil
p1159
(dp1160
g229
I3
sg230
I00
sg231
g770
sg233
(dp1161
S'damageType'
p1162
(lp1163
g74
asS'pic'
p1164
(lp1165
g770
asS'damage'
p1166
(lp1167
g74
asS'range'
p1168
(lp1169
g780
asS'cooldown'
p1170
(lp1171
g783
asS'speed'
p1172
(lp1173
g240
assg245
I00
sg246
I0
sg247
I01
sg248
(lp1174
sg250
I30
sg251
F1.0
sg252
F55.0
sg253
(lp1175
I0
aI70
asg255
g1151
sg256
I1
sg257
g1151
sg258
(lp1176
I2
asg260
I00
sbasg261
I99
sg262
g263
sg264
I00
sg265
I00
sg266
(lp1177
I5569
aI3305
asg268
F6.2279307147628549
sg269
(lp1178
F-0.39955912015452566
aF1.184420748510149
asg271
(I276
I162
tp1179
sg273
g274
sg125
I10
sg275
I0
sg276
I0
sg277
I6
sg278
F1.1618264476121993
sg279
g792
sg281
(lp1180
(I276
I162
tp1181
a(I276
I163
tp1182
a(I276
I164
tp1183
a(I276
I165
tp1184
a(I276
I166
tp1185
a(I276
I167
tp1186
a(I276
I168
tp1187
a(I276
I169
tp1188
a(I276
I170
tp1189
a(I276
I171
tp1190
a(I276
I172
tp1191
a(I277
I173
tp1192
asg127
I1
sg288
I0
sg289
I00
sg290
I20
sg291
(lp1193
I12
aI70
asg293
F1.1618264476121993
sg294
I0
sg295
(lp1194
F-24.613868841267301
aF3.88899418906268
asg297
F0.91999999999999993
sg298
F0.0
sg299
g302
sg304
I684
sg666
g812
sg668
g722
sg670
F1.1618264476121993
sg723
F1.5707963267948966
sg671
I00
sg672
I01
sg673
(dp1195
sg309
I00
sg675
(dp1196
sg677
F0.6828711287327166
sg726
I0
sg696
F0.9617154314050862
sg697
(dp1197
g666
g812
sg399
I80
sg728
g816
sg390
I0
sg737
F0.080000000000000002
sg738
F2.5
sg739
I45
sg740
g825
sg742
I0
sg397
I80
sg743
I90
sg298
I20
sg372
I50
sg744
I230
sg745
g826
sg748
I200
sg749
I4
ssg699
I3
sg750
I00
sg751
I0
sg712
g302
sg709
Nsg710
(lp1198
I0
aI0
asg753
g182
sg258
(lp1199
I2
asg246
I1
sg755
I0
sg716
I01
sg756
(lp1200
I276
aI162
asg252
I5
sg360
g261
sg717
I2
sg758
I7
sg720
I0
sg665
g1159
sbag205
(g206
g207
Ntp1201
Rp1202
(dp1203
g211
Nsg212
I0
sg213
F0.36610935290499513
sg214
(iCode.Units.Buffs
BuffStruct
p1204
(dp1205
g217
g1202
sg214
(lp1206
sbsg219
(lp1207
F5499.3792421257722
aF3380.3527996971002
asg221
F1.2000000000000002
sg222
I0
sg223
F0.40000000000000002
sg201
(lp1208
F5499.3792421257722
aF3380.3527996971002
asg225
(lp1209
(iCode.Units.Abilities
EnemyProjectileShotAbil
p1210
(dp1211
g229
I3
sg230
I00
sg231
g770
sg233
(dp1212
S'damageType'
p1213
(lp1214
g74
asS'pic'
p1215
(lp1216
g770
asS'damage'
p1217
(lp1218
g74
asS'range'
p1219
(lp1220
g780
asS'cooldown'
p1221
(lp1222
g783
asS'speed'
p1223
(lp1224
g240
assg245
I00
sg246
I0
sg247
I01
sg248
(lp1225
sg250
I30
sg251
F1.0
sg252
F55.0
sg253
(lp1226
I0
aI70
asg255
g1202
sg256
I1
sg257
g1202
sg258
(lp1227
I2
asg260
I00
sbasg261
I99
sg262
g263
sg264
I00
sg265
I00
sg266
(lp1228
I5589
aI3449
asg268
F3.9594979553115115
sg269
(lp1229
F-0.88861766078229765
aF-0.87912379841851473
asg271
(I278
I174
tp1230
sg273
g274
sg125
I10
sg275
I0
sg276
I0
sg277
I10
sg278
F-2.1257203224247085
sg279
g792
sg281
(lp1231
(I278
I174
tp1232
a(I278
I173
tp1233
a(I278
I172
tp1234
a(I278
I171
tp1235
a(I278
I170
tp1236
a(I278
I169
tp1237
a(I278
I168
tp1238
a(I278
I167
tp1239
a(I278
I166
tp1240
a(I278
I165
tp1241
a(I278
I164
tp1242
a(I278
I163
tp1243
a(I278
I162
tp1244
a(I278
I161
tp1245
a(I279
I160
tp1246
asg127
I1
sg288
I0
sg289
I00
sg290
I20
sg291
(lp1247
I6
aI70
asg293
F-2.1257203224247085
sg294
I0
sg295
(lp1248
F-25.586701763544873
aF-16.385153017520466
asg297
F0.87999999999999989
sg298
F0.0
sg299
g302
sg304
I283
sg666
g812
sg668
g722
sg670
F4.1574649847548777
sg723
F0.0
sg671
I00
sg672
I01
sg673
(dp1249
sg309
I00
sg675
(dp1250
sg677
F0.42466007932713423
sg726
I0
sg696
F0.92639731579693285
sg697
(dp1251
g666
g812
sg399
I80
sg728
g816
sg390
I0
sg737
F0.080000000000000002
sg738
F2.5
sg739
I45
sg740
g825
sg742
I0
sg749
I4
sg743
I90
sg298
I20
sg372
I50
sg744
I230
sg745
g826
sg748
I200
sg397
I80
ssg699
I3
sg750
I00
sg751
I0
sg712
g302
sg709
Nsg710
(lp1252
I0
aI0
asg753
g182
sg258
(lp1253
sg246
I1
sg755
I0
sg716
I01
sg756
(lp1254
I278
aI174
asg252
I5
sg360
g261
sg717
I2
sg758
I16
sg720
I0
sg665
g1210
sbasS'timeToSleep'
p1255
I42
sS'decorObjects'
p1256
(lp1257
sS'decorations'
p1258
(lp1259
(I284
I156
tp1260
asS'isBossRoom'
p1261
I00
sS'piece'
p1262
(iCode.Engine.DungeonGenerator
DungeonPiece
p1263
(dp1264
g128
(lp1265
(lp1266
I12
aI10
aI11
aa(lp1267
I5
aI0
aI0
aa(lp1268
I7
aI0
aI0
aasS'grid'
p1269
(lp1270
(lp1271
I0
aI0
aI0
aa(lp1272
I0
aI1
aI1
aa(lp1273
I0
aI1
aI1
aasS'isRoom'
p1274
I00
sbsg1274
I00
sba(iCode.Engine.DungeonGenerator
DungeonRoom
p1275
(dp1276
g184
I00
sg185
(lp1277
(I32
I22
tp1278
a(I32
I23
tp1279
a(I32
I24
tp1280
a(I32
I25
tp1281
a(I32
I26
tp1282
a(I32
I27
tp1283
a(I33
I22
tp1284
a(I33
I23
tp1285
a(I33
I24
tp1286
a(I33
I25
tp1287
a(I33
I26
tp1288
a(I33
I27
tp1289
a(I34
I22
tp1290
a(I34
I23
tp1291
a(I34
I24
tp1292
a(I34
I25
tp1293
a(I34
I26
tp1294
a(I34
I27
tp1295
a(I35
I22
tp1296
a(I35
I23
tp1297
a(I35
I24
tp1298
a(I35
I25
tp1299
a(I35
I26
tp1300
a(I35
I27
tp1301
a(I36
I22
tp1302
a(I36
I23
tp1303
a(I36
I24
tp1304
a(I36
I25
tp1305
a(I36
I26
tp1306
a(I36
I27
tp1307
a(I37
I22
tp1308
a(I37
I23
tp1309
a(I37
I24
tp1310
a(I37
I25
tp1311
a(I37
I26
tp1312
a(I37
I27
tp1313
asg192
(lp1314
sg194
(lp1315
sg127
I1
sg196
(lp1316
g81
ag81
ag81
ag81
ag81
ag81
ag81
ag81
ag81
ag81
ag81
ag81
ag81
ag81
ag81
ag81
ag81
ag81
ag81
ag81
ag81
ag81
ag81
ag81
ag81
ag81
ag81
ag81
ag81
ag81
ag81
ag81
ag81
ag81
ag81
ag81
asg198
I00
sg199
I01
sg200
I1368101832
sg201
(lp1317
I32
aI22
asg203
(lp1318
g205
(g206
g207
Ntp1319
Rp1320
(dp1321
g211
Nsg212
I0
sg213
F4.7123889803846897
sg214
(iCode.Units.Buffs
BuffStruct
p1322
(dp1323
g217
g1320
sg214
(lp1324
sbsg219
(lp1325
F5310.1716407524173
aF4305.9165924310364
asg221
F1.2000000000000002
sg222
I0
sg223
F0.40000000000000002
sg201
(lp1326
F5310.1716407524173
aF4305.9165924310364
asg225
(lp1327
(iCode.Units.Abilities
EnemyProjectileShotAbil
p1328
(dp1329
g229
I3
sg230
I00
sg231
S'GreenSlimeShot'
p1330
sg233
(dp1331
S'animationTime'
p1332
(lp1333
S'10'
p1334
asS'damageType'
p1335
(lp1336
g939
asS'pic'
p1337
(lp1338
g1330
asS'range'
p1339
(lp1340
S'300'
p1341
asS'cooldown'
p1342
(lp1343
S'20'
p1344
asS'speed'
p1345
(lp1346
g240
assg245
I00
sg246
I0
sg247
I01
sg248
(lp1347
sg250
I30
sg251
I5
sg252
F300.0
sg253
(lp1348
I0
aI20
asg255
g1320
sg256
I9
sg257
g1320
sg258
(lp1349
I2
asg260
I00
sba(iCode.Units.Abilities
EnemyMultiShotAbil
p1350
(dp1351
g229
I1
sg230
I00
sg231
S'GreenSlimeShot'
p1352
sg233
(dp1353
S'animationTime'
p1354
(lp1355
S'20'
p1356
asS'damageType'
p1357
(lp1358
g939
asS'pic'
p1359
(lp1360
g1352
asS'range'
p1361
(lp1362
S'300'
p1363
asS'cooldown'
p1364
(lp1365
S'50'
p1366
asS'speed'
p1367
(lp1368
g74
assg245
I00
sg246
I0
sg247
I01
sg248
(lp1369
sg250
I30
sg251
I5
sg252
F300.0
sg253
(lp1370
I0
aI50
asg255
g1320
sg256
I9
sg257
g1320
sg258
(lp1371
I2
asg963
I3
sg260
I00
sba(iCode.Units.Abilities
EnemyFireball
p1372
(dp1373
g230
I00
sS'targetSquare'
p1374
(I269
I211
tp1375
sg231
S'FireballExplosion'
p1376
sg233
(dp1377
S'cooldown'
p1378
(lp1379
S'200'
p1380
asS'animationTime'
p1381
(lp1382
S'40'
p1383
asS'pic'
p1384
(lp1385
g1376
asS'damage'
p1386
(lp1387
S'25'
p1388
asS'damageType'
p1389
(lp1390
S'5'
p1391
assg245
I00
sg246
I0
sg247
I01
sg248
(lp1392
sS'flashingSquares'
p1393
(lp1394
(iCode.Engine.Effects
FlashingSquare
p1395
(dp1396
S'time'
p1397
I0
sS'midTime'
p1398
I10
sS'coord'
p1399
(lp1400
I268
aI211
asg127
I1
sba(iCode.Engine.Effects
FlashingSquare
p1401
(dp1402
g1397
I0
sg1398
I10
sg1399
(lp1403
I268
aI210
asg127
I1
sba(iCode.Engine.Effects
FlashingSquare
p1404
(dp1405
g1397
I0
sg1398
I10
sg1399
(lp1406
I270
aI211
asg127
I1
sba(iCode.Engine.Effects
FlashingSquare
p1407
(dp1408
g1397
I0
sg1398
I10
sg1399
(lp1409
I270
aI210
asg127
I1
sba(iCode.Engine.Effects
FlashingSquare
p1410
(dp1411
g1397
I0
sg1398
I10
sg1399
(lp1412
I269
aI210
asg127
I1
sba(iCode.Engine.Effects
FlashingSquare
p1413
(dp1414
g1397
I0
sg1398
I10
sg1399
(lp1415
I270
aI212
asg127
I1
sba(iCode.Engine.Effects
FlashingSquare
p1416
(dp1417
g1397
I0
sg1398
I10
sg1399
(lp1418
I268
aI212
asg127
I1
sba(iCode.Engine.Effects
FlashingSquare
p1419
(dp1420
g1397
I0
sg1398
I10
sg1399
(lp1421
I269
aI212
asg127
I1
sba(iCode.Engine.Effects
FlashingSquare
p1422
(dp1423
g1397
I0
sg1398
I10
sg1399
(lp1424
I269
aI211
asg127
I1
sbasg250
I40
sg251
F25.0
sg252
I80
sg253
(lp1425
I0
aI200
asg255
g1320
sg256
I5
sg257
g1320
sg258
(lp1426
I2
asg260
I00
sbasg261
I99
sg262
S'Stop'
p1427
sg264
I00
sg265
I00
sg266
(lp1428
I5386
aI3957
asg268
F1.4847864954755101
sg269
(lp1429
F-0.027358637391215058
aF-0.74950083719772853
asg271
(I257
I185
tp1430
sg273
g274
sg125
I10
sg275
I0
sg276
I0
sg277
I8
sg278
F-1.561330800095643
sg279
S'Serpent'
p1431
sg281
(lp1432
(I257
I185
tp1433
a(I258
I186
tp1434
a(I259
I187
tp1435
a(I260
I188
tp1436
a(I261
I189
tp1437
a(I262
I190
tp1438
a(I263
I191
tp1439
a(I264
I192
tp1440
a(I265
I193
tp1441
a(I266
I194
tp1442
a(I267
I195
tp1443
asg127
I1
sg288
I0
sg289
I00
sg290
I110
sg291
(lp1444
I13
aI70
asg293
F-1.561330800095643
sg294
I0
sg295
(lp1445
F-5.8929413941949846
aF-76.769392075086813
asg297
F0.25000000000000111
sg298
F0.0
sg299
g302
sg304
I1363
sg666
S'Serpent'
p1446
sg668
g722
sg670
F4.7218545070839433
sg723
I0
sg671
I00
sg672
I01
sg673
(dp1447
sg309
I00
sg675
(dp1448
sg677
F0.79164014214854905
sg726
I0
sg696
F0.37352570068463964
sg697
(dp1449
g666
g1446
sg869
S'F1Boss'
p1450
sg399
I150
sg728
(lp1451
(lp1452
g731
a(lp1453
S'-pic'
p1454
ag1330
aS'-cooldown'
p1455
ag1344
aS'-range'
p1456
ag1341
aS'-animationTime'
p1457
ag1334
aS'-speed'
p1458
ag240
aS'-damageType'
p1459
ag939
aaa(lp1460
g998
a(lp1461
S'-pic'
p1462
ag1352
aS'-range'
p1463
ag1363
aS'-animationTime'
p1464
ag1356
aS'-cooldown'
p1465
ag1366
aS'-speed'
p1466
ag74
aS'-damageType'
p1467
ag939
aaa(lp1468
cCode.Units.Abilities
EnemyFireball
p1469
a(lp1470
S'-pic'
p1471
ag1376
aS'-cooldown'
p1472
ag1380
aS'-animationTime'
p1473
ag1383
aS'-damage'
p1474
ag1388
aS'-damageType'
p1475
ag1391
aaasg390
F0.5
sg737
F0.5
sg738
F1.5
sg739
I130
sg740
(lp1476
F0.0
aF0.0
aF0.0
aF0.0
aF0.0
aF0.0
aF0.0
aF0.0
aF0.0
aF0.0
asg742
F0.69999999999999996
sg397
I150
sg743
I300
sg298
I110
sg372
I300
sg744
I230
sg745
(dp1477
S'WaterWalking'
p1478
F0.29999999999999999
ssg748
I500
sg749
I1
ssg699
I2
sg750
I00
sg751
I0
sg712
g302
sg709
Nsg710
(lp1479
I0
aI0
asg753
g1275
sg258
(lp1480
sg246
I1
sg755
I0
sg716
I01
sg756
(lp1481
I257
aI185
asg252
I5
sg360
g261
sg717
I2
sg758
I40
sg720
I0
sg665
g1328
sbag205
(g206
g207
Ntp1482
Rp1483
(dp1484
g211
Nsg212
I0
sg213
F0.88337800056416216
sg214
(iCode.Units.Buffs
BuffStruct
p1485
(dp1486
g217
g1483
sg214
(lp1487
sbsg219
(lp1488
F5813.0504665700455
aF4098.6450972288221
asg221
I0
sg222
I0
sg223
F0.40000000000000002
sg201
(lp1489
F5813.0504665700455
aF4098.6450972288221
asg225
(lp1490
(iCode.Units.Abilities
EnemyProjectileShotAbil
p1491
(dp1492
g229
I2
sg230
I00
sg231
g932
sg233
(dp1493
S'cooldown'
p1494
(lp1495
g936
asS'damageType'
p1496
(lp1497
g939
asS'pic'
p1498
(lp1499
g932
asS'speed'
p1500
(lp1501
g73
assg245
I00
sg246
I0
sg247
I01
sg248
(lp1502
sg250
I30
sg251
I5
sg252
I80
sg253
(lp1503
I0
aI80
asg255
g1483
sg256
I9
sg257
g1483
sg258
(lp1504
I2
asg260
I00
sba(iCode.Units.Abilities
EnemyMultiShotAbil
p1505
(dp1506
g229
I1
sg230
I00
sg231
g949
sg233
(dp1507
S'cooldown'
p1508
(lp1509
g953
asS'damageType'
p1510
(lp1511
g939
asS'pic'
p1512
(lp1513
g949
asS'speed'
p1514
(lp1515
g74
assg245
I00
sg246
I0
sg247
I01
sg248
(lp1516
sg250
I30
sg251
I5
sg252
I80
sg253
(lp1517
I0
aI400
asg255
g1483
sg256
I9
sg257
g1483
sg258
(lp1518
I2
asg963
I3
sg260
I00
sbasg261
I99
sg262
g263
sg264
I00
sg265
I00
sg266
(lp1519
I5190
aI3808
asg268
F0.88337800056416216
sg269
(lp1520
F0.16696842860929104
aF0.9859622426075676
asg271
(I286
I214
tp1521
sg273
g274
sg125
I10
sg275
I0
sg276
I0
sg277
I8
sg278
F2.4944054364952564
sg279
S'GreenSlime'
p1522
sg281
(lp1523
(I286
I214
tp1524
a(I286
I213
tp1525
a(I286
I212
tp1526
a(I286
I211
tp1527
a(I286
I210
tp1528
a(I286
I209
tp1529
a(I286
I208
tp1530
a(I286
I207
tp1531
a(I286
I206
tp1532
a(I286
I205
tp1533
a(I286
I204
tp1534
a(I286
I203
tp1535
a(I286
I202
tp1536
a(I286
I201
tp1537
asg127
I1
sg288
I0
sg289
I00
sg290
I4
sg291
(lp1538
I43
aI70
asg293
F2.4944054364952564
sg294
I0
sg295
(lp1539
F63.99856160738787
aF12.255074765635952
asg297
F0.7200000000000002
sg298
F0.0
sg299
g302
sg304
I1015
sg666
g986
sg668
g722
sg670
F2.4944054364952564
sg723
F0.0
sg671
I00
sg672
I01
sg673
(dp1540
sg309
I00
sg675
(dp1541
sg677
F0.013267192960756624
sg726
I0
sg696
F0.2048664182799762
sg697
(dp1542
g666
g986
sg399
I130
sg728
g990
sg390
I0
sg737
F0.080000000000000002
sg738
I2
sg739
I80
sg740
g1004
sg742
I0
sg397
I80
sg743
I90
sg298
I4
sg372
I40
sg744
I230
sg745
g1005
sg748
I200
sg749
I2
ssg699
I2
sg750
I00
sg751
I0
sg712
g302
sg709
Nsg710
(lp1543
I0
aI0
asg753
g1275
sg258
(lp1544
I2
asg246
I1
sg755
I0
sg716
I01
sg756
(lp1545
I286
aI214
asg252
I5
sg360
g261
sg717
I2
sg758
I11
sg720
I0
sg665
g1491
sbag205
(g206
g207
Ntp1546
Rp1547
(dp1548
g211
Nsg212
I0
sg213
F1.7265398436405017
sg214
(iCode.Units.Buffs
BuffStruct
p1549
(dp1550
g217
g1547
sg214
(lp1551
sbsg219
(lp1552
F5374.4130530229913
aF4277.7999698032154
asg221
I0
sg222
I0
sg223
F0.40000000000000002
sg201
(lp1553
F5374.4130530229913
aF4277.7999698032154
asg225
(lp1554
(iCode.Units.Abilities
EnemyProjectileShotAbil
p1555
(dp1556
g229
I2
sg230
I00
sg231
g932
sg233
(dp1557
S'cooldown'
p1558
(lp1559
g936
asS'damageType'
p1560
(lp1561
g939
asS'pic'
p1562
(lp1563
g932
asS'speed'
p1564
(lp1565
g73
assg245
I00
sg246
I0
sg247
I01
sg248
(lp1566
sg250
I30
sg251
I5
sg252
I80
sg253
(lp1567
I0
aI80
asg255
g1547
sg256
I9
sg257
g1547
sg258
(lp1568
I2
asg260
I00
sba(iCode.Units.Abilities
EnemyMultiShotAbil
p1569
(dp1570
g229
I1
sg230
I00
sg231
g949
sg233
(dp1571
S'cooldown'
p1572
(lp1573
g953
asS'damageType'
p1574
(lp1575
g939
asS'pic'
p1576
(lp1577
g949
asS'speed'
p1578
(lp1579
g74
assg245
I00
sg246
I0
sg247
I01
sg248
(lp1580
sg250
I30
sg251
I5
sg252
I80
sg253
(lp1581
I0
aI400
asg255
g1547
sg256
I9
sg257
g1547
sg258
(lp1582
I2
asg963
I3
sg260
I00
sbasg261
I99
sg262
g263
sg264
I00
sg265
I00
sg266
(lp1583
I5554
aI3883
asg268
F-0.18904271775585491
sg269
(lp1584
F0.49153144716353619
aF-0.87085982594750566
asg271
(I260
I185
tp1585
sg273
g274
sg125
I10
sg275
I0
sg276
I0
sg277
I9
sg278
F-1.831898725072689
sg279
g1522
sg281
(lp1586
(I260
I185
tp1587
a(I260
I186
tp1588
a(I260
I187
tp1589
a(I260
I188
tp1590
a(I260
I189
tp1591
a(I260
I190
tp1592
a(I260
I191
tp1593
a(I260
I192
tp1594
a(I260
I193
tp1595
a(I261
I194
tp1596
a(I262
I195
tp1597
a(I263
I196
tp1598
a(I264
I197
tp1599
a(I265
I198
tp1600
a(I266
I199
tp1601
a(I267
I200
tp1602
a(I268
I201
tp1603
a(I269
I202
tp1604
a(I270
I203
tp1605
a(I271
I204
tp1606
a(I272
I205
tp1607
a(I273
I206
tp1608
a(I274
I207
tp1609
a(I275
I208
tp1610
asg127
I1
sg288
I0
sg289
I00
sg290
I4
sg291
(lp1611
I62
aI70
asg293
F-1.831898725072689
sg294
I0
sg295
(lp1612
F40.974470728641087
aF-13.923177283480049
asg297
F0.7200000000000002
sg298
F0.0
sg299
g302
sg304
I1445
sg666
g986
sg668
g722
sg670
F4.4512865821068974
sg723
F1.5707963267948966
sg671
I00
sg672
I01
sg673
(dp1613
sg309
I00
sg675
(dp1614
sg677
F0.66116544713655989
sg726
I0
sg696
F0.82395539141941743
sg697
(dp1615
g666
g986
sg399
I130
sg728
g990
sg390
I0
sg737
F0.080000000000000002
sg738
I2
sg739
I80
sg740
g1004
sg742
I0
sg397
I80
sg743
I90
sg298
I4
sg372
I40
sg744
I230
sg745
g1005
sg748
I200
sg749
I2
ssg699
I2
sg750
I00
sg751
I0
sg712
g302
sg709
Nsg710
(lp1616
I0
aI0
asg753
g1275
sg258
(lp1617
sg246
I1
sg755
I0
sg716
I01
sg756
(lp1618
I260
aI185
asg252
I5
sg360
g261
sg717
I2
sg758
I6
sg720
I0
sg665
g1555
sbag205
(g206
g207
Ntp1619
Rp1620
(dp1621
g211
Nsg212
I0
sg213
F4.4455656847580309
sg214
(iCode.Units.Buffs
BuffStruct
p1622
(dp1623
g217
g1620
sg214
(lp1624
sbsg219
(lp1625
F5438.1470391876455
aF4054.9206379356638
asg221
F0.80000000000000004
sg222
I0
sg223
F0.40000000000000002
sg201
(lp1626
F5438.1470391876455
aF4054.9206379356638
asg225
(lp1627
(iCode.Units.Abilities
EnemyProjectileShotAbil
p1628
(dp1629
g229
I2
sg230
I00
sg231
g932
sg233
(dp1630
S'cooldown'
p1631
(lp1632
g936
asS'damageType'
p1633
(lp1634
g939
asS'pic'
p1635
(lp1636
g932
asS'speed'
p1637
(lp1638
g73
assg245
I00
sg246
I0
sg247
I01
sg248
(lp1639
sg250
I30
sg251
I5
sg252
I80
sg253
(lp1640
I0
aI80
asg255
g1620
sg256
I9
sg257
g1620
sg258
(lp1641
I2
asg260
I00
sba(iCode.Units.Abilities
EnemyMultiShotAbil
p1642
(dp1643
g229
I1
sg230
I00
sg231
g949
sg233
(dp1644
S'cooldown'
p1645
(lp1646
g953
asS'damageType'
p1647
(lp1648
g939
asS'pic'
p1649
(lp1650
g949
asS'speed'
p1651
(lp1652
g74
assg245
I00
sg246
I0
sg247
I01
sg248
(lp1653
sg250
I30
sg251
I5
sg252
I80
sg253
(lp1654
I0
aI400
asg255
g1620
sg256
I9
sg257
g1620
sg258
(lp1655
I2
asg963
I3
sg260
I00
sbasg261
I99
sg262
g263
sg264
I00
sg265
I00
sg266
(lp1656
I5686
aI3933
asg268
F4.4455656847580309
sg269
(lp1657
F0.69296117792192624
aF0.72097489962761974
asg271
(I265
I223
tp1658
sg273
g274
sg125
I10
sg275
I0
sg276
I0
sg277
I4
sg278
F0.86987615058394785
sg279
g1522
sg281
(lp1659
(I265
I223
tp1660
a(I265
I222
tp1661
a(I265
I221
tp1662
a(I265
I220
tp1663
a(I265
I219
tp1664
a(I265
I218
tp1665
a(I265
I217
tp1666
a(I265
I216
tp1667
a(I265
I215
tp1668
a(I265
I214
tp1669
a(I265
I213
tp1670
a(I265
I212
tp1671
a(I265
I211
tp1672
a(I265
I210
tp1673
a(I265
I209
tp1674
a(I265
I208
tp1675
a(I265
I207
tp1676
a(I265
I206
tp1677
a(I265
I205
tp1678
a(I265
I204
tp1679
asg127
I1
sg288
I0
sg289
I00
sg290
I4
sg291
(lp1680
I67
aI70
asg293
F0.86987615058394785
sg294
I0
sg295
(lp1681
F-27.937696767715135
aF-36.531093332232388
asg297
F0.7200000000000002
sg298
F0.0
sg299
g302
sg304
I2202
sg666
g986
sg668
g722
sg670
F0.86987615058394785
sg723
F-1.5707963267948966
sg671
I00
sg672
I01
sg673
(dp1682
sg309
I00
sg675
(dp1683
sg677
F0.67777465485778599
sg726
I0
sg696
F0.95436814838101558
sg697
(dp1684
g666
g986
sg399
I130
sg728
g990
sg390
I0
sg737
F0.080000000000000002
sg738
I2
sg739
I80
sg740
g1004
sg742
I0
sg397
I80
sg743
I90
sg298
I4
sg372
I40
sg744
I230
sg745
g1005
sg748
I200
sg749
I2
ssg699
I2
sg750
I00
sg751
I0
sg712
g302
sg709
Nsg710
(lp1685
I0
aI0
asg753
g1275
sg258
(lp1686
sg246
I1
sg755
I0
sg716
I01
sg756
(lp1687
I265
aI223
asg252
I5
sg360
g261
sg717
I2
sg758
I1
sg720
I0
sg665
g1628
sbag205
(g206
g207
Ntp1688
Rp1689
(dp1690
g211
Nsg212
I0
sg213
F4.7123889803846897
sg214
(iCode.Units.Buffs
BuffStruct
p1691
(dp1692
g217
g1689
sg214
(lp1693
sbsg219
(lp1694
F5246.1374436228734
aF4232.7823252910721
asg221
F0.80000000000000004
sg222
I0
sg223
F0.40000000000000002
sg201
(lp1695
F5246.1374436228734
aF4232.7823252910721
asg225
(lp1696
(iCode.Units.Abilities
EnemyProjectileShotAbil
p1697
(dp1698
g229
I2
sg230
I00
sg231
g932
sg233
(dp1699
S'cooldown'
p1700
(lp1701
g936
asS'damageType'
p1702
(lp1703
g939
asS'pic'
p1704
(lp1705
g932
asS'speed'
p1706
(lp1707
g73
assg245
I00
sg246
I0
sg247
I01
sg248
(lp1708
sg250
I30
sg251
I5
sg252
I80
sg253
(lp1709
I0
aI80
asg255
g1689
sg256
I9
sg257
g1689
sg258
(lp1710
I2
asg260
I00
sba(iCode.Units.Abilities
EnemyMultiShotAbil
p1711
(dp1712
g229
I1
sg230
I00
sg231
g949
sg233
(dp1713
S'cooldown'
p1714
(lp1715
g953
asS'damageType'
p1716
(lp1717
g939
asS'pic'
p1718
(lp1719
g949
asS'speed'
p1720
(lp1721
g74
assg245
I00
sg246
I0
sg247
I01
sg248
(lp1722
sg250
I30
sg251
I5
sg252
I80
sg253
(lp1723
I0
aI400
asg255
g1689
sg256
I9
sg257
g1689
sg258
(lp1724
I2
asg963
I3
sg260
I00
sbasg261
I99
sg262
g1427
sg264
I00
sg265
I00
sg266
(lp1725
I5642
aI3996
asg268
F1.8226699375189734
sg269
(lp1726
F-0.43384064287406443
aF0.90098962068972721
asg271
(I263
I220
tp1727
sg273
g274
sg125
I10
sg275
I0
sg276
I0
sg277
I6
sg278
F2.4848794495822144
sg279
g1522
sg281
(lp1728
(I263
I220
tp1729
a(I263
I219
tp1730
a(I263
I218
tp1731
a(I264
I217
tp1732
a(I265
I216
tp1733
a(I266
I215
tp1734
a(I267
I214
tp1735
a(I268
I213
tp1736
asg127
I1
sg288
I0
sg289
I00
sg290
I4
sg291
(lp1737
I15
aI70
asg293
F2.4848794495822144
sg294
I0
sg295
(lp1738
F-1.3274209184601988
aF51.465817501923794
asg297
F0.93000000000000016
sg298
F0.0
sg299
g302
sg304
I3727
sg666
g986
sg668
g722
sg670
F2.4848794495822144
sg723
I0
sg671
I00
sg672
I01
sg673
(dp1739
sg309
I00
sg675
(dp1740
sg677
F0.35662746204655982
sg726
I0
sg696
F0.71589978157822676
sg697
(dp1741
g666
g986
sg399
I130
sg728
g990
sg390
I0
sg737
F0.080000000000000002
sg738
I2
sg739
I80
sg740
g1004
sg742
I0
sg397
I80
sg743
I90
sg298
I4
sg372
I40
sg744
I230
sg745
g1005
sg748
I200
sg749
I2
ssg699
I2
sg750
I00
sg751
I0
sg712
g302
sg709
Nsg710
(lp1742
I0
aI0
asg753
g1275
sg258
(lp1743
sg246
I1
sg755
I0
sg716
I01
sg756
(lp1744
I263
aI220
asg252
I5
sg360
g261
sg717
I2
sg758
I33
sg720
I0
sg665
g1697
sbag205
(g206
g207
Ntp1745
Rp1746
(dp1747
g211
Nsg212
I0
sg213
F4.7123889803846897
sg214
(iCode.Units.Buffs
BuffStruct
p1748
(dp1749
g217
g1746
sg214
(lp1750
sbsg219
(lp1751
F5186.5453803439186
aF4218.5899124082371
asg221
I0
sg222
I0
sg223
F0.40000000000000002
sg201
(lp1752
F5186.5453803439186
aF4218.5899124082371
asg225
(lp1753
(iCode.Units.Abilities
EnemyProjectileShotAbil
p1754
(dp1755
g229
I2
sg230
I00
sg231
g932
sg233
(dp1756
S'cooldown'
p1757
(lp1758
g936
asS'damageType'
p1759
(lp1760
g939
asS'pic'
p1761
(lp1762
g932
asS'speed'
p1763
(lp1764
g73
assg245
I00
sg246
I0
sg247
I01
sg248
(lp1765
sg250
I30
sg251
I5
sg252
I80
sg253
(lp1766
I0
aI80
asg255
g1746
sg256
I9
sg257
g1746
sg258
(lp1767
I2
asg260
I00
sba(iCode.Units.Abilities
EnemyMultiShotAbil
p1768
(dp1769
g229
I1
sg230
I00
sg231
g949
sg233
(dp1770
S'cooldown'
p1771
(lp1772
g953
asS'damageType'
p1773
(lp1774
g939
asS'pic'
p1775
(lp1776
g949
asS'speed'
p1777
(lp1778
g74
assg245
I00
sg246
I0
sg247
I01
sg248
(lp1779
sg250
I30
sg251
I5
sg252
I80
sg253
(lp1780
I0
aI400
asg255
g1746
sg256
I9
sg257
g1746
sg258
(lp1781
I2
asg963
I3
sg260
I00
sbasg261
I99
sg262
g1427
sg264
I00
sg265
I00
sg266
(lp1782
I5278
aI3988
asg268
F3.3306800843557895
sg269
(lp1783
F-0.82199394726377228
aF-0.56949622532701905
asg271
(I279
I205
tp1784
sg273
g274
sg125
I10
sg275
I0
sg276
I0
sg277
I9
sg278
F2.7341279017707807
sg279
g1522
sg281
(lp1785
(I279
I205
tp1786
a(I278
I205
tp1787
a(I277
I205
tp1788
a(I276
I205
tp1789
a(I275
I205
tp1790
a(I274
I205
tp1791
a(I273
I205
tp1792
a(I272
I205
tp1793
a(I271
I205
tp1794
a(I270
I205
tp1795
a(I269
I205
tp1796
a(I268
I204
tp1797
a(I267
I203
tp1798
a(I266
I202
tp1799
asg127
I1
sg288
I0
sg289
I00
sg290
I4
sg291
(lp1800
I22
aI70
asg293
F2.7341279017707807
sg294
I0
sg295
(lp1801
F-8.1649294585468475
aF-49.302333691567434
asg297
F0.20000000000000018
sg298
F0.0
sg299
g302
sg304
I3855
sg666
g986
sg668
g722
sg670
F2.7341279017707807
sg723
I0
sg671
I00
sg672
I01
sg673
(dp1802
sg309
I00
sg675
(dp1803
sg677
F0.19945464423922221
sg726
I0
sg696
F0.18743965794486928
sg697
(dp1804
g666
g986
sg869
S'F1EasyEnemy'
p1805
sg399
I130
sg728
g990
sg390
I0
sg737
F0.080000000000000002
sg738
I2
sg739
I80
sg740
g1004
sg742
I0
sg397
I80
sg743
I90
sg298
I4
sg372
I40
sg744
I230
sg745
g1005
sg748
I200
sg749
I2
ssg699
I2
sg750
I00
sg751
I0
sg712
g302
sg709
Nsg710
(lp1806
I0
aI0
asg753
g1275
sg258
(lp1807
sg246
I1
sg755
I0
sg716
I01
sg756
(lp1808
I279
aI205
asg252
I5
sg360
g261
sg717
I2
sg758
I38
sg720
I0
sg665
g1754
sbag205
(g206
g207
Ntp1809
Rp1810
(dp1811
g211
Nsg212
I0
sg213
F1.5707963267948966
sg214
(iCode.Units.Buffs
BuffStruct
p1812
(dp1813
g217
g1810
sg214
(lp1814
sbsg219
(lp1815
F5197.886245153195
aF4149.506186528597
asg221
F1.6000000000000001
sg222
I0
sg223
F0.40000000000000002
sg201
(lp1816
F5197.886245153195
aF4149.506186528597
asg225
(lp1817
(iCode.Units.Abilities
EnemyProjectileShotAbil
p1818
(dp1819
g229
I2
sg230
I00
sg231
g932
sg233
(dp1820
S'cooldown'
p1821
(lp1822
g936
asS'damageType'
p1823
(lp1824
g939
asS'pic'
p1825
(lp1826
g932
asS'speed'
p1827
(lp1828
g73
assg245
I00
sg246
I0
sg247
I01
sg248
(lp1829
sg250
I30
sg251
I5
sg252
I80
sg253
(lp1830
I0
aI80
asg255
g1810
sg256
I9
sg257
g1810
sg258
(lp1831
I2
asg260
I00
sba(iCode.Units.Abilities
EnemyMultiShotAbil
p1832
(dp1833
g229
I1
sg230
I00
sg231
g949
sg233
(dp1834
S'cooldown'
p1835
(lp1836
g953
asS'damageType'
p1837
(lp1838
g939
asS'pic'
p1839
(lp1840
g949
asS'speed'
p1841
(lp1842
g74
assg245
I00
sg246
I0
sg247
I01
sg248
(lp1843
sg250
I30
sg251
I5
sg252
I80
sg253
(lp1844
I0
aI400
asg255
Nsg256
I9
sg257
g1810
sg258
(lp1845
I2
asg963
I3
sg260
I00
sbasg261
I99
sg262
g1427
sg264
I00
sg265
I00
sg266
(lp1846
I5215
aI4021
asg268
F2.1181920823017437
sg269
(lp1847
I0
aI0
asg271
(I260
I203
tp1848
sg273
g274
sg125
I10
sg275
I0
sg276
I0
sg277
I4
sg278
F-1.1139486581267195
sg279
g1522
sg281
(lp1849
(I260
I203
tp1850
asg127
I1
sg288
I0
sg289
I00
sg290
I4
sg291
(lp1851
I37
aI70
asg293
F-1.1139486581267195
sg294
I0
sg295
(lp1852
F-7.5807611776105359
aF44.703925202836977
asg297
F0.20000000000000018
sg298
F0.0
sg299
g302
sg304
I4019
sg666
g986
sg668
g722
sg670
F5.1692366490528663
sg723
F1.5707963267948966
sg671
I00
sg672
I01
sg673
(dp1853
sg309
I00
sg675
(dp1854
sg677
F0.51481502363170561
sg726
I0
sg696
F0.31764242493784323
sg697
(dp1855
g666
g986
sg399
I130
sg728
g990
sg390
I0
sg737
F0.080000000000000002
sg738
I2
sg739
I80
sg740
g1004
sg742
I0
sg397
I80
sg743
I90
sg298
I4
sg372
I40
sg744
I230
sg745
g1005
sg748
I200
sg749
I2
ssg699
I2
sg750
I00
sg751
I0
sg712
g302
sg709
Nsg710
(lp1856
I0
aI0
asg753
g1275
sg258
(lp1857
sg246
I1
sg755
I84
sg716
I01
sg756
(I5747
I4313
tp1858
sg252
I5
sg360
g261
sg717
I2
sg758
I35
sg720
I0
sg665
g1818
sbag205
(g206
g207
Ntp1859
Rp1860
(dp1861
g211
Nsg212
I0
sg213
F3.2660134389028572
sg214
(iCode.Units.Buffs
BuffStruct
p1862
(dp1863
g217
g1860
sg214
(lp1864
sbsg219
(lp1865
F5353.4181472884711
aF4263.6188696116278
asg221
F0.40000000000000002
sg222
I0
sg223
F0.40000000000000002
sg201
(lp1866
F5353.4181472884711
aF4263.6188696116278
asg225
(lp1867
(iCode.Units.Abilities
EnemyProjectileShotAbil
p1868
(dp1869
g229
I1
sg230
I00
sg231
g232
sg233
(dp1870
S'cooldown'
p1871
(lp1872
g237
asS'damageType'
p1873
(lp1874
g240
asS'pic'
p1875
(lp1876
g232
asS'speed'
p1877
(lp1878
g74
assg245
I00
sg246
I0
sg247
I01
sg248
(lp1879
sg250
I30
sg251
I5
sg252
I80
sg253
(lp1880
I0
aI100
asg255
g1860
sg256
I3
sg257
g1860
sg258
(lp1881
I2
asg260
I00
sbasg261
I99
sg262
g1427
sg264
I00
sg265
I00
sg266
(lp1882
I6062
aI4397
asg268
F3.3188273992658872
sg269
(lp1883
F0.31580048015198847
aF-0.94882561977202828
asg271
(I263
I211
tp1884
sg273
g274
sg125
I10
sg275
I0
sg276
I0
sg277
I6
sg278
F-1.2390516795055353
sg279
S'Slug'
p1885
sg281
(lp1886
(I263
I211
tp1887
a(I264
I211
tp1888
a(I265
I211
tp1889
a(I266
I211
tp1890
a(I267
I211
tp1891
a(I268
I211
tp1892
a(I269
I211
tp1893
a(I270
I211
tp1894
a(I271
I211
tp1895
a(I272
I211
tp1896
a(I273
I211
tp1897
a(I274
I211
tp1898
a(I275
I211
tp1899
a(I276
I211
tp1900
asg127
I1
sg288
I0
sg289
I00
sg290
I20
sg291
(lp1901
I55
aI70
asg293
F-1.2390516795055353
sg294
I0
sg295
(lp1902
F12.935536461120503
aF-46.003977290017176
asg297
F0.11200000000000054
sg298
F0.0
sg299
g302
sg304
I1446
sg666
g721
sg668
g722
sg670
F5.0441336276740509
sg723
F-1.5707963267948966
sg671
I00
sg672
I01
sg673
(dp1903
sg309
I00
sg675
(dp1904
sg677
F0.80497955131430621
sg726
I0
sg696
F0.27153393584711361
sg697
(dp1905
g666
g721
sg869
S'F1MedEnemy'
p1906
sg399
I100
sg728
g729
sg390
F0.20000000000000001
sg737
F0.10000000000000001
sg738
I2
sg739
I80
sg740
g741
sg742
F0.20000000000000001
sg397
I120
sg743
I90
sg298
I20
sg372
I70
sg744
I230
sg745
g746
sg748
I200
sg749
I1
ssg699
I2
sg750
I00
sg751
I0
sg712
g302
sg709
Nsg710
(lp1907
I0
aI0
asg753
g1275
sg258
(lp1908
I2
asg246
I1
sg755
I0
sg716
I01
sg756
(lp1909
I263
aI211
asg252
I5
sg360
g261
sg717
I2
sg758
I24
sg720
I0
sg665
g1868
sbag205
(g206
g207
Ntp1910
Rp1911
(dp1912
g211
Nsg212
I0
sg213
F1.5794867460455062
sg214
(iCode.Units.Buffs
BuffStruct
p1913
(dp1914
g217
g1911
sg214
(lp1915
sbsg219
(lp1916
F5234.6057064872111
aF4296.4265801938418
asg221
F0.40000000000000002
sg222
I0
sg223
F0.40000000000000002
sg201
(lp1917
F5234.6057064872111
aF4296.4265801938418
asg225
(lp1918
(iCode.Units.Abilities
EnemyProjectileShotAbil
p1919
(dp1920
g229
I1
sg230
I00
sg231
g232
sg233
(dp1921
S'cooldown'
p1922
(lp1923
g237
asS'damageType'
p1924
(lp1925
g240
asS'pic'
p1926
(lp1927
g232
asS'speed'
p1928
(lp1929
g74
assg245
I00
sg246
I0
sg247
I01
sg248
(lp1930
sg250
I30
sg251
I5
sg252
I80
sg253
(lp1931
I0
aI100
asg255
g1911
sg256
I3
sg257
g1911
sg258
(lp1932
I2
asg260
I00
sbasg261
I99
sg262
g263
sg264
I00
sg265
I00
sg266
(lp1933
I5723
aI3578
asg268
F2.1568853451720358
sg269
(lp1934
F0.48395744263834722
aF0.87509153447793731
asg271
(I294
I196
tp1935
sg273
g274
sg125
I10
sg275
I0
sg276
I0
sg277
I2
sg278
F0.6152964612215881
sg279
g1885
sg281
(lp1936
(I294
I196
tp1937
a(I293
I196
tp1938
a(I292
I196
tp1939
a(I291
I196
tp1940
a(I290
I196
tp1941
a(I289
I196
tp1942
a(I288
I196
tp1943
a(I287
I196
tp1944
a(I286
I196
tp1945
a(I285
I196
tp1946
a(I284
I196
tp1947
a(I283
I196
tp1948
a(I282
I196
tp1949
a(I281
I196
tp1950
a(I280
I196
tp1951
a(I279
I196
tp1952
a(I278
I196
tp1953
a(I277
I196
tp1954
a(I276
I196
tp1955
a(I275
I196
tp1956
a(I274
I196
tp1957
a(I273
I196
tp1958
a(I272
I196
tp1959
a(I271
I196
tp1960
a(I270
I196
tp1961
a(I269
I195
tp1962
a(I268
I194
tp1963
asg127
I1
sg288
I0
sg289
I00
sg290
I20
sg291
(lp1964
I39
aI70
asg293
F0.6152964612215881
sg294
I0
sg295
(lp1965
F-16.827228198624201
aF50.712189749162093
asg297
F0.11200000000000054
sg298
F0.0
sg299
g302
sg304
I1561
sg666
g721
sg668
g722
sg670
F0.6152964612215881
sg723
F3.1415926535897931
sg671
I00
sg672
I01
sg673
(dp1966
sg309
I00
sg675
(dp1967
sg677
F0.78285458513449435
sg726
I0
sg696
F0.034987413196089112
sg697
(dp1968
g666
g721
sg399
I100
sg728
g729
sg390
F0.20000000000000001
sg737
F0.10000000000000001
sg738
I2
sg739
I80
sg740
g741
sg742
F0.20000000000000001
sg397
I120
sg743
I90
sg298
I20
sg372
I70
sg744
I230
sg745
g746
sg748
I200
sg749
I1
ssg699
I2
sg750
I00
sg751
I0
sg712
g302
sg709
Nsg710
(lp1969
I0
aI0
asg753
g1275
sg258
(lp1970
I2
asg246
I1
sg755
I0
sg716
I01
sg756
(lp1971
I294
aI196
asg252
I5
sg360
g261
sg717
I2
sg758
I20
sg720
I0
sg665
g1919
sbasg1255
I199
sg1256
(lp1972
sg1258
(lp1973
(I292
I220
tp1974
a(I276
I188
tp1975
a(I292
I180
tp1976
a(I284
I196
tp1977
a(I300
I180
tp1978
a(I276
I204
tp1979
a(I276
I196
tp1980
a(I268
I196
tp1981
a(I260
I188
tp1982
a(I292
I212
tp1983
a(I300
I212
tp1984
a(I260
I196
tp1985
asg1261
I01
sg1262
(iCode.Engine.DungeonGenerator
DungeonPiece
p1986
(dp1987
g128
(lp1988
(lp1989
I12
aI8
aI8
aI8
aI8
aI9
aa(lp1990
I4
aI0
aI0
aI0
aI0
aI1
aa(lp1991
I4
aI0
aI0
aI0
aI0
aI1
aa(lp1992
I4
aI0
aI0
aI0
aI0
aI1
aa(lp1993
I4
aI0
aI0
aI0
aI0
aI1
aa(lp1994
I6
aI2
aI2
aI2
aI2
aI3
aasg1269
(lp1995
(lp1996
I0
aI0
aI0
aI0
aI0
aI0
aa(lp1997
I0
aI0
aI0
aI0
aI0
aI0
aa(lp1998
I0
aI0
aI0
aI0
aI0
aI0
aa(lp1999
I0
aI0
aI0
aI0
aI0
aI0
aa(lp2000
I0
aI0
aI0
aI0
aI0
aI0
aa(lp2001
I0
aI0
aI0
aI0
aI0
aI0
aasg1274
I01
sbsg1274
I01
sbasg1269
(lp2002
(lp2003
I1
aI1
aI1
aI1
aI1
aI1
aI1
aI1
aI1
aI1
aI1
aI1
aI1
aI1
aI1
aI1
aI1
aI1
aI1
aI1
aI1
aI1
aI1
aI1
aI1
aI1
aI1
aI1
aI1
aI1
aI1
aI1
aI1
aI1
aI1
aI1
aI1
aI1
aI1
aI1
aI1
aI1
aI1
aI1
aI1
aI1
aI1
aI1
aI1
aI1
aa(lp2004
I1
aI1
aI1
aI1
aI1
aI1
aI1
aI1
aI1
aI1
aI1
aI1
aI1
aI1
aI1
aI1
aI1
aI1
aI1
aI1
aI1
aI1
aI1
aI1
aI1
aI1
aI1
aI1
aI1
aI1
aI1
aI1
aI1
aI1
aI1
aI1
aI1
aI1
aI1
aI1
aI1
aI1
aI1
aI1
aI1
aI1
aI1
aI1
aI1
aI1
aa(lp2005
I1
aI1
aI1
aI1
aI1
aI1
aI1
aI1
aI1
aI1
aI1
aI1
aI1
aI1
aI1
aI1
aI1
aI1
aI1
aI1
aI1
aI1
aI1
aI1
aI1
aI1
aI1
aI1
aI1
aI1
aI1
aI1
aI1
aI1
aI1
aI1
aI1
aI1
aI1
aI1
aI1
aI1
aI1
aI1
aI1
aI1
aI1
aI1
aI1
aI1
aa(lp2006
I1
aI1
aI1
aI1
aI1
aI1
aI1
aI1
aI1
aI1
aI1
aI1
aI1
aI1
aI1
aI1
aI1
aI1
aI1
aI1
aI1
aI1
aI1
aI1
aI1
aI1
aI1
aI1
aI1
aI1
aI1
aI1
aI1
aI1
aI1
aI1
aI1
aI1
aI1
aI1
aI1
aI1
aI1
aI1
aI1
aI1
aI1
aI1
aI1
aI1
aa(lp2007
I1
aI1
aI1
aI1
aI1
aI1
aI1
aI1
aI1
aI1
aI1
aI1
aI1
aI1
aI1
aI1
aI1
aI1
aI1
aI1
aI1
aI1
aI1
aI1
aI1
aI1
aI1
aI1
aI1
aI1
aI1
aI1
aI1
aI1
aI1
aI1
aI1
aI1
aI1
aI1
aI1
aI1
aI1
aI1
aI1
aI1
aI1
aI1
aI1
aI1
aa(lp2008
I1
aI1
aI1
aI1
aI1
aI1
aI1
aI1
aI1
aI1
aI1
aI1
aI1
aI1
aI1
aI1
aI1
aI1
aI1
aI1
aI1
aI1
aI1
aI1
aI1
aI1
aI1
aI1
aI1
aI1
aI1
aI1
aI1
aI1
aI1
aI1
aI1
aI1
aI1
aI1
aI1
aI1
aI1
aI1
aI1
aI1
aI1
aI1
aI1
aI1
aa(lp2009
I1
aI1
aI1
aI1
aI1
aI1
aI1
aI1
aI1
aI1
aI1
aI1
aI1
aI1
aI1
aI1
aI1
aI1
aI1
aI1
aI1
aI1
aI1
aI1
aI1
aI1
aI1
aI1
aI1
aI1
aI1
aI1
aI1
aI1
aI1
aI1
aI1
aI1
aI1
aI1
aI1
aI1
aI1
aI1
aI1
aI1
aI1
aI1
aI1
aI1
aa(lp2010
I1
aI1
aI1
aI1
aI1
aI1
aI1
aI1
aI1
aI1
aI1
aI1
aI1
aI1
aI1
aI1
aI1
aI1
aI1
aI1
aI1
aI1
aI1
aI1
aI1
aI1
aI1
aI1
aI1
aI1
aI1
aI1
aI1
aI1
aI1
aI1
aI1
aI1
aI1
aI1
aI1
aI1
aI1
aI1
aI1
aI1
aI1
aI1
aI1
aI1
aa(lp2011
I1
aI1
aI1
aI1
aI1
aI1
aI1
aI1
aI1
aI1
aI1
aI1
aI1
aI1
aI1
aI1
aI1
aI1
aI1
aI1
aI1
aI1
aI1
aI1
aI1
aI1
aI1
aI1
aI1
aI1
aI1
aI1
aI1
aI1
aI1
aI1
aI1
aI1
aI1
aI1
aI1
aI1
aI1
aI1
aI1
aI1
aI1
aI1
aI1
aI1
aa(lp2012
I1
aI1
aI1
aI1
aI1
aI1
aI1
aI1
aI1
aI1
aI1
aI1
aI1
aI1
aI1
aI1
aI1
aI1
aI1
aI1
aI1
aI1
aI1
aI1
aI1
aI1
aI1
aI1
aI1
aI1
aI1
aI1
aI1
aI1
aI1
aI1
aI1
aI1
aI1
aI1
aI1
aI1
aI1
aI1
aI1
aI1
aI1
aI1
aI1
aI1
aa(lp2013
I1
aI1
aI1
aI1
aI1
aI1
aI1
aI1
aI1
aI1
aI1
aI1
aI1
aI1
aI1
aI1
aI1
aI1
aI1
aI1
aI1
aI1
aI1
aI1
aI1
aI1
aI1
aI1
aI1
aI1
aI1
aI1
aI1
aI1
aI1
aI1
aI1
aI1
aI1
aI1
aI1
aI1
aI1
aI1
aI1
aI1
aI1
aI1
aI1
aI1
aa(lp2014
I1
aI1
aI1
aI1
aI1
aI1
aI1
aI1
aI1
aI1
aI1
aI1
aI1
aI1
aI1
aI1
aI1
aI1
aI1
aI1
aI1
aI1
aI1
aI1
aI1
aI1
aI1
aI1
aI1
aI1
aI1
aI1
aI1
aI1
aI1
aI1
aI1
aI1
aI1
aI1
aI1
aI1
aI1
aI1
aI1
aI1
aI1
aI1
aI1
aI1
aa(lp2015
I1
aI1
aI1
aI1
aI1
aI1
aI1
aI1
aI1
aI1
aI1
aI1
aI1
aI1
aI1
aI1
aI1
aI1
aI1
aI1
aI1
aI1
aI1
aI1
aI1
aI1
aI1
aI1
aI1
aI1
aI1
aI1
aI1
aI1
aI1
aI1
aI1
aI1
aI1
aI1
aI1
aI1
aI1
aI1
aI1
aI1
aI1
aI1
aI1
aI1
aa(lp2016
I1
aI1
aI1
aI1
aI1
aI1
aI1
aI1
aI1
aI1
aI1
aI1
aI1
aI1
aI1
aI1
aI1
aI1
aI1
aI1
aI1
aI1
aI1
aI1
aI1
aI1
aI1
aI1
aI1
aI1
aI1
aI1
aI1
aI1
aI1
aI1
aI1
aI1
aI1
aI1
aI1
aI1
aI1
aI1
aI1
aI1
aI1
aI1
aI1
aI1
aa(lp2017
I1
aI1
aI1
aI1
aI1
aI1
aI1
aI1
aI1
aI1
aI1
aI1
aI1
aI1
aI1
aI1
aI1
aI1
aI1
aI1
aI1
aI1
aI1
aI1
aI1
aI1
aI1
aI1
aI1
aI1
aI1
aI1
aI1
aI1
aI1
aI1
aI1
aI1
aI1
aI1
aI1
aI1
aI1
aI1
aI1
aI1
aI1
aI1
aI1
aI1
aa(lp2018
I1
aI1
aI1
aI1
aI1
aI1
aI1
aI1
aI1
aI1
aI1
aI1
aI1
aI1
aI1
aI1
aI1
aI1
aI1
aI1
aI1
aI1
aI1
aI1
aI1
aI1
aI1
aI1
aI1
aI1
aI1
aI1
aI1
aI1
aI1
aI1
aI1
aI1
aI1
aI1
aI1
aI1
aI1
aI1
aI1
aI1
aI1
aI1
aI1
aI1
aa(lp2019
I1
aI1
aI1
aI1
aI1
aI1
aI1
aI1
aI1
aI1
aI1
aI1
aI1
aI1
aI1
aI1
aI1
aI1
aI1
aI1
aI1
aI1
aI1
aI1
aI1
aI1
aI1
aI1
aI1
aI1
aI1
aI1
aI1
aI1
aI1
aI1
aI1
aI1
aI1
aI1
aI1
aI1
aI1
aI1
aI1
aI1
aI1
aI1
aI1
aI1
aa(lp2020
I1
aI1
aI1
aI1
aI1
aI1
aI1
aI1
aI1
aI1
aI1
aI1
aI1
aI1
aI1
aI1
aI1
aI1
aI1
aI1
aI1
aI1
aI1
aI1
aI1
aI1
aI1
aI1
aI1
aI1
aI1
aI1
aI1
aI1
aI1
aI1
aI1
aI1
aI1
aI1
aI1
aI1
aI1
aI1
aI1
aI1
aI1
aI1
aI1
aI1
aa(lp2021
I1
aI1
aI1
aI1
aI1
aI1
aI1
aI1
aI1
aI1
aI1
aI1
aI1
aI1
aI1
aI1
aI1
aI1
aI1
aI1
aI1
aI1
aI1
aI1
aI1
aI1
aI1
aI1
aI1
aI1
aI1
aI1
aI1
aI1
aI1
aI1
aI1
aI1
aI1
aI1
aI1
aI1
aI1
aI1
aI1
aI1
aI1
aI1
aI1
aI1
aa(lp2022
I1
aI1
aI1
aI1
aI1
aI1
aI1
aI1
aI1
aI1
aI1
aI1
aI1
aI1
aI1
aI1
aI1
aI1
aI1
aI1
aI1
aI1
aI1
aI1
aI1
aI1
aI1
aI1
aI1
aI1
aI1
aI1
aI1
aI1
aI0
aI0
aI0
aI1
aI1
aI1
aI1
aI1
aI1
aI1
aI1
aI1
aI1
aI1
aI1
aI1
aa(lp2023
I1
aI1
aI1
aI1
aI1
aI1
aI1
aI1
aI1
aI1
aI1
aI1
aI1
aI1
aI1
aI1
aI1
aI1
aI1
aI1
aI1
aI1
aI1
aI1
aI1
aI1
aI1
aI1
aI1
aI1
aI1
aI1
aI1
aI1
aI0
aI1
aI1
aI1
aI1
aI1
aI1
aI1
aI1
aI1
aI1
aI1
aI1
aI1
aI1
aI1
aa(lp2024
I1
aI1
aI1
aI1
aI1
aI1
aI1
aI1
aI1
aI1
aI1
aI1
aI1
aI1
aI1
aI1
aI1
aI1
aI1
aI1
aI1
aI1
aI1
aI1
aI1
aI1
aI1
aI1
aI1
aI1
aI1
aI1
aI1
aI1
aI0
aI1
aI1
aI1
aI1
aI1
aI1
aI1
aI1
aI1
aI1
aI1
aI1
aI1
aI1
aI1
aa(lp2025
I1
aI1
aI1
aI1
aI1
aI1
aI1
aI1
aI1
aI1
aI1
aI1
aI1
aI1
aI1
aI1
aI1
aI1
aI1
aI1
aI1
aI1
aI1
aI1
aI1
aI1
aI1
aI1
aI1
aI1
aI1
aI1
aI0
aI0
aI0
aI0
aI0
aI0
aI1
aI1
aI1
aI1
aI1
aI1
aI1
aI1
aI1
aI1
aI1
aI1
aa(lp2026
I1
aI1
aI1
aI1
aI1
aI1
aI1
aI1
aI1
aI1
aI1
aI1
aI1
aI1
aI1
aI1
aI1
aI1
aI1
aI1
aI1
aI1
aI1
aI1
aI1
aI1
aI1
aI1
aI1
aI1
aI1
aI1
aI0
aI0
aI0
aI0
aI0
aI0
aI1
aI1
aI1
aI1
aI1
aI1
aI1
aI1
aI1
aI1
aI1
aI1
aa(lp2027
I1
aI1
aI1
aI1
aI1
aI1
aI1
aI1
aI1
aI1
aI1
aI1
aI1
aI1
aI1
aI1
aI1
aI1
aI1
aI1
aI1
aI1
aI1
aI1
aI1
aI1
aI0
aI1
aI1
aI1
aI1
aI1
aI0
aI0
aI0
aI0
aI0
aI0
aI1
aI1
aI1
aI1
aI1
aI1
aI1
aI1
aI1
aI1
aI1
aI1
aa(lp2028
I1
aI1
aI1
aI1
aI1
aI1
aI1
aI1
aI1
aI1
aI1
aI1
aI1
aI1
aI1
aI1
aI1
aI1
aI1
aI1
aI1
aI1
aI1
aI1
aI0
aI0
aI0
aI1
aI0
aI1
aI1
aI1
aI0
aI0
aI0
aI0
aI0
aI0
aI1
aI1
aI1
aI1
aI1
aI1
aI1
aI1
aI1
aI1
aI1
aI1
aa(lp2029
I1
aI1
aI1
aI1
aI1
aI1
aI1
aI1
aI1
aI1
aI1
aI1
aI1
aI1
aI1
aI1
aI1
aI1
aI1
aI1
aI1
aI1
aI1
aI1
aI1
aI1
aI0
aI0
aI0
aI0
aI0
aI0
aI0
aI0
aI0
aI0
aI0
aI0
aI1
aI1
aI1
aI1
aI1
aI1
aI1
aI1
aI1
aI1
aI1
aI1
aa(lp2030
I1
aI1
aI1
aI1
aI1
aI1
aI1
aI1
aI1
aI1
aI1
aI1
aI1
aI1
aI1
aI1
aI1
aI1
aI1
aI1
aI1
aI1
aI1
aI1
aI1
aI1
aI1
aI1
aI1
aI1
aI0
aI1
aI0
aI0
aI0
aI0
aI0
aI0
aI1
aI1
aI1
aI1
aI1
aI1
aI1
aI1
aI1
aI1
aI1
aI1
aa(lp2031
I1
aI1
aI1
aI1
aI1
aI1
aI1
aI1
aI1
aI1
aI1
aI1
aI1
aI1
aI1
aI1
aI1
aI1
aI1
aI1
aI1
aI1
aI1
aI1
aI1
aI1
aI1
aI1
aI1
aI1
aI1
aI1
aI1
aI1
aI1
aI1
aI1
aI1
aI1
aI1
aI1
aI1
aI1
aI1
aI1
aI1
aI1
aI1
aI1
aI1
aa(lp2032
I1
aI1
aI1
aI1
aI1
aI1
aI1
aI1
aI1
aI1
aI1
aI1
aI1
aI1
aI1
aI1
aI1
aI1
aI1
aI1
aI1
aI1
aI1
aI1
aI1
aI1
aI1
aI1
aI1
aI1
aI1
aI1
aI1
aI1
aI1
aI1
aI1
aI1
aI1
aI1
aI1
aI1
aI1
aI1
aI1
aI1
aI1
aI1
aI1
aI1
aa(lp2033
I1
aI1
aI1
aI1
aI1
aI1
aI1
aI1
aI1
aI1
aI1
aI1
aI1
aI1
aI1
aI1
aI1
aI1
aI1
aI1
aI1
aI1
aI1
aI1
aI1
aI1
aI1
aI1
aI1
aI1
aI1
aI1
aI1
aI1
aI1
aI1
aI1
aI1
aI1
aI1
aI1
aI1
aI1
aI1
aI1
aI1
aI1
aI1
aI1
aI1
aa(lp2034
I1
aI1
aI1
aI1
aI1
aI1
aI1
aI1
aI1
aI1
aI1
aI1
aI1
aI1
aI1
aI1
aI1
aI1
aI1
aI1
aI1
aI1
aI1
aI1
aI1
aI1
aI1
aI1
aI1
aI1
aI1
aI1
aI1
aI1
aI1
aI1
aI1
aI1
aI1
aI1
aI1
aI1
aI1
aI1
aI1
aI1
aI1
aI1
aI1
aI1
aa(lp2035
I1
aI1
aI1
aI1
aI1
aI1
aI1
aI1
aI1
aI1
aI1
aI1
aI1
aI1
aI1
aI1
aI1
aI1
aI1
aI1
aI1
aI1
aI1
aI1
aI1
aI1
aI1
aI1
aI1
aI1
aI1
aI1
aI1
aI1
aI1
aI1
aI1
aI1
aI1
aI1
aI1
aI1
aI1
aI1
aI1
aI1
aI1
aI1
aI1
aI1
aa(lp2036
I1
aI1
aI1
aI1
aI1
aI1
aI1
aI1
aI1
aI1
aI1
aI1
aI1
aI1
aI1
aI1
aI1
aI1
aI1
aI1
aI1
aI1
aI1
aI1
aI1
aI1
aI1
aI1
aI1
aI1
aI1
aI1
aI1
aI1
aI1
aI1
aI1
aI1
aI1
aI1
aI1
aI1
aI1
aI1
aI1
aI1
aI1
aI1
aI1
aI1
aa(lp2037
I1
aI1
aI1
aI1
aI1
aI1
aI1
aI1
aI1
aI1
aI1
aI1
aI1
aI1
aI1
aI1
aI1
aI1
aI1
aI1
aI1
aI1
aI1
aI1
aI1
aI1
aI1
aI1
aI1
aI1
aI1
aI1
aI1
aI1
aI1
aI1
aI1
aI1
aI1
aI1
aI1
aI1
aI1
aI1
aI1
aI1
aI1
aI1
aI1
aI1
aa(lp2038
I1
aI1
aI1
aI1
aI1
aI1
aI1
aI1
aI1
aI1
aI1
aI1
aI1
aI1
aI1
aI1
aI1
aI1
aI1
aI1
aI1
aI1
aI1
aI1
aI1
aI1
aI1
aI1
aI1
aI1
aI1
aI1
aI1
aI1
aI1
aI1
aI1
aI1
aI1
aI1
aI1
aI1
aI1
aI1
aI1
aI1
aI1
aI1
aI1
aI1
aa(lp2039
I1
aI1
aI1
aI1
aI1
aI1
aI1
aI1
aI1
aI1
aI1
aI1
aI1
aI1
aI1
aI1
aI1
aI1
aI1
aI1
aI1
aI1
aI1
aI1
aI1
aI1
aI1
aI1
aI1
aI1
aI1
aI1
aI1
aI1
aI1
aI1
aI1
aI1
aI1
aI1
aI1
aI1
aI1
aI1
aI1
aI1
aI1
aI1
aI1
aI1
aa(lp2040
I1
aI1
aI1
aI1
aI1
aI1
aI1
aI1
aI1
aI1
aI1
aI1
aI1
aI1
aI1
aI1
aI1
aI1
aI1
aI1
aI1
aI1
aI1
aI1
aI1
aI1
aI1
aI1
aI1
aI1
aI1
aI1
aI1
aI1
aI1
aI1
aI1
aI1
aI1
aI1
aI1
aI1
aI1
aI1
aI1
aI1
aI1
aI1
aI1
aI1
aa(lp2041
I1
aI1
aI1
aI1
aI1
aI1
aI1
aI1
aI1
aI1
aI1
aI1
aI1
aI1
aI1
aI1
aI1
aI1
aI1
aI1
aI1
aI1
aI1
aI1
aI1
aI1
aI1
aI1
aI1
aI1
aI1
aI1
aI1
aI1
aI1
aI1
aI1
aI1
aI1
aI1
aI1
aI1
aI1
aI1
aI1
aI1
aI1
aI1
aI1
aI1
aa(lp2042
I1
aI1
aI1
aI1
aI1
aI1
aI1
aI1
aI1
aI1
aI1
aI1
aI1
aI1
aI1
aI1
aI1
aI1
aI1
aI1
aI1
aI1
aI1
aI1
aI1
aI1
aI1
aI1
aI1
aI1
aI1
aI1
aI1
aI1
aI1
aI1
aI1
aI1
aI1
aI1
aI1
aI1
aI1
aI1
aI1
aI1
aI1
aI1
aI1
aI1
aa(lp2043
I1
aI1
aI1
aI1
aI1
aI1
aI1
aI1
aI1
aI1
aI1
aI1
aI1
aI1
aI1
aI1
aI1
aI1
aI1
aI1
aI1
aI1
aI1
aI1
aI1
aI1
aI1
aI1
aI1
aI1
aI1
aI1
aI1
aI1
aI1
aI1
aI1
aI1
aI1
aI1
aI1
aI1
aI1
aI1
aI1
aI1
aI1
aI1
aI1
aI1
aa(lp2044
I1
aI1
aI1
aI1
aI1
aI1
aI1
aI1
aI1
aI1
aI1
aI1
aI1
aI1
aI1
aI1
aI1
aI1
aI1
aI1
aI1
aI1
aI1
aI1
aI1
aI1
aI1
aI1
aI1
aI1
aI1
aI1
aI1
aI1
aI1
aI1
aI1
aI1
aI1
aI1
aI1
aI1
aI1
aI1
aI1
aI1
aI1
aI1
aI1
aI1
aa(lp2045
I1
aI1
aI1
aI1
aI1
aI1
aI1
aI1
aI1
aI1
aI1
aI1
aI1
aI1
aI1
aI1
aI1
aI1
aI1
aI1
aI1
aI1
aI1
aI1
aI1
aI1
aI1
aI1
aI1
aI1
aI1
aI1
aI1
aI1
aI1
aI1
aI1
aI1
aI1
aI1
aI1
aI1
aI1
aI1
aI1
aI1
aI1
aI1
aI1
aI1
aa(lp2046
I1
aI1
aI1
aI1
aI1
aI1
aI1
aI1
aI1
aI1
aI1
aI1
aI1
aI1
aI1
aI1
aI1
aI1
aI1
aI1
aI1
aI1
aI1
aI1
aI1
aI1
aI1
aI1
aI1
aI1
aI1
aI1
aI1
aI1
aI1
aI1
aI1
aI1
aI1
aI1
aI1
aI1
aI1
aI1
aI1
aI1
aI1
aI1
aI1
aI1
aa(lp2047
I1
aI1
aI1
aI1
aI1
aI1
aI1
aI1
aI1
aI1
aI1
aI1
aI1
aI1
aI1
aI1
aI1
aI1
aI1
aI1
aI1
aI1
aI1
aI1
aI1
aI1
aI1
aI1
aI1
aI1
aI1
aI1
aI1
aI1
aI1
aI1
aI1
aI1
aI1
aI1
aI1
aI1
aI1
aI1
aI1
aI1
aI1
aI1
aI1
aI1
aa(lp2048
I1
aI1
aI1
aI1
aI1
aI1
aI1
aI1
aI1
aI1
aI1
aI1
aI1
aI1
aI1
aI1
aI1
aI1
aI1
aI1
aI1
aI1
aI1
aI1
aI1
aI1
aI1
aI1
aI1
aI1
aI1
aI1
aI1
aI1
aI1
aI1
aI1
aI1
aI1
aI1
aI1
aI1
aI1
aI1
aI1
aI1
aI1
aI1
aI1
aI1
aa(lp2049
I1
aI1
aI1
aI1
aI1
aI1
aI1
aI1
aI1
aI1
aI1
aI1
aI1
aI1
aI1
aI1
aI1
aI1
aI1
aI1
aI1
aI1
aI1
aI1
aI1
aI1
aI1
aI1
aI1
aI1
aI1
aI1
aI1
aI1
aI1
aI1
aI1
aI1
aI1
aI1
aI1
aI1
aI1
aI1
aI1
aI1
aI1
aI1
aI1
aI1
aa(lp2050
I1
aI1
aI1
aI1
aI1
aI1
aI1
aI1
aI1
aI1
aI1
aI1
aI1
aI1
aI1
aI1
aI1
aI1
aI1
aI1
aI1
aI1
aI1
aI1
aI1
aI1
aI1
aI1
aI1
aI1
aI1
aI1
aI1
aI1
aI1
aI1
aI1
aI1
aI1
aI1
aI1
aI1
aI1
aI1
aI1
aI1
aI1
aI1
aI1
aI1
aa(lp2051
I1
aI1
aI1
aI1
aI1
aI1
aI1
aI1
aI1
aI1
aI1
aI1
aI1
aI1
aI1
aI1
aI1
aI1
aI1
aI1
aI1
aI1
aI1
aI1
aI1
aI1
aI1
aI1
aI1
aI1
aI1
aI1
aI1
aI1
aI1
aI1
aI1
aI1
aI1
aI1
aI1
aI1
aI1
aI1
aI1
aI1
aI1
aI1
aI1
aI1
aa(lp2052
I1
aI1
aI1
aI1
aI1
aI1
aI1
aI1
aI1
aI1
aI1
aI1
aI1
aI1
aI1
aI1
aI1
aI1
aI1
aI1
aI1
aI1
aI1
aI1
aI1
aI1
aI1
aI1
aI1
aI1
aI1
aI1
aI1
aI1
aI1
aI1
aI1
aI1
aI1
aI1
aI1
aI1
aI1
aI1
aI1
aI1
aI1
aI1
aI1
aI1
aasS'rooms'
p2053
(dp2054
(I26
I24
tp2055
(iCode.Engine.DungeonGenerator
DungeonRoom
p2056
(dp2057
g184
I00
sg185
(lp2058
(I24
I25
tp2059
a(I25
I25
tp2060
a(I26
I24
tp2061
a(I26
I25
tp2062
a(I26
I26
tp2063
asg192
(lp2064
sg194
(lp2065
sg127
I1
sg196
Nsg198
I01
sg199
I00
sg200
I0
sg201
(lp2066
I24
aI24
asg203
(lp2067
sg1255
I0
sg1256
(lp2068
(iCode.Engine.Traps
Decoration
p2069
(dp2070
S'dungeonRoom'
p2071
NsS'shrineX'
p2072
I4
sS'wasDetected'
p2073
I00
sg309
I00
sg127
I1
sS'shrineY'
p2074
I1
sg8
I0
sS'lastUnitTouched'
p2075
NsS'activated'
p2076
I0
sS'layer'
p2077
I0
sS'source'
p2078
(I194
I202
tp2079
sS'isSolid'
p2080
I00
sS'backupActivated'
p2081
I0
sS'open'
p2082
(lp2083
I0
aI100
asba(iCode.Engine.Traps
Decoration
p2084
(dp2085
g2071
Nsg2072
I4
sg2073
I00
sg309
I00
sg127
I1
sg2074
I1
sg8
I0
sg2075
Nsg2076
I0
sg2077
I0
sg2078
(I199
I202
tp2086
sg2080
I00
sg2081
I0
sg2082
(lp2087
I0
aI100
asba(iCode.Engine.Traps
Decoration
p2088
(dp2089
g2071
Nsg2072
I4
sg2073
I00
sg309
I00
sg127
I1
sg2074
I1
sg8
I0
sg2075
Nsg2076
I0
sg2077
I0
sg2078
(I194
I205
tp2090
sg2080
I00
sg2081
I0
sg2082
(lp2091
I0
aI100
asba(iCode.Engine.Traps
Decoration
p2092
(dp2093
g2071
Nsg2072
I1
sg2073
I00
sg309
I00
sg127
I1
sg2074
I1
sg8
I0
sg2075
Nsg2076
I0
sg2077
I0
sg2078
(I204
I201
tp2094
sg2080
I00
sg2081
I0
sg2082
(lp2095
I0
aI100
asba(iCode.Engine.Traps
Decoration
p2096
(dp2097
g2071
Nsg2072
I1
sg2073
I00
sg309
I00
sg127
I1
sg2074
I1
sg8
I0
sg2075
Nsg2076
I0
sg2077
I0
sg2078
(I203
I206
tp2098
sg2080
I00
sg2081
I0
sg2082
(lp2099
I0
aI100
asba(iCode.Engine.Traps
Decoration
p2100
(dp2101
g2071
Nsg2072
I0
sg2073
I00
sg309
I00
sg127
I1
sg2074
I1
sg8
I0
sg2075
Nsg2076
I0
sg2077
I0
sg2078
(I206
I202
tp2102
sg2080
I00
sg2081
I0
sg2082
(lp2103
I0
aI100
asba(iCode.Engine.Traps
Decoration
p2104
(dp2105
g2071
Nsg2072
I1
sg2073
I00
sg309
I00
sg127
I1
sg2074
I1
sg8
I0
sg2075
Nsg2076
I0
sg2077
I0
sg2078
(I205
I204
tp2106
sg2080
I00
sg2081
I0
sg2082
(lp2107
I0
aI100
asba(iCode.Engine.Traps
Decoration
p2108
(dp2109
g2071
Nsg2072
I4
sg2073
I00
sg309
I00
sg127
I1
sg2074
I1
sg8
I0
sg2075
Nsg2076
I0
sg2077
I0
sg2078
(I215
I194
tp2110
sg2080
I00
sg2081
I0
sg2082
(lp2111
I0
aI100
asba(iCode.Engine.Traps
Decoration
p2112
(dp2113
g2071
Nsg2072
I4
sg2073
I00
sg309
I00
sg127
I1
sg2074
I1
sg8
I0
sg2075
Nsg2076
I0
sg2077
I0
sg2078
(I212
I195
tp2114
sg2080
I00
sg2081
I0
sg2082
(lp2115
I0
aI100
asba(iCode.Engine.Traps
Decoration
p2116
(dp2117
g2071
Nsg2072
I2
sg2073
I00
sg309
I00
sg127
I1
sg2074
I1
sg8
I0
sg2075
Nsg2076
I0
sg2077
I0
sg2078
(I214
I203
tp2118
sg2080
I00
sg2081
I0
sg2082
(lp2119
I0
aI100
asba(iCode.Engine.Traps
Decoration
p2120
(dp2121
g2071
Nsg2072
I2
sg2073
I00
sg309
I00
sg127
I1
sg2074
I1
sg8
I0
sg2075
Nsg2076
I0
sg2077
I0
sg2078
(I209
I209
tp2122
sg2080
I00
sg2081
I0
sg2082
(lp2123
I0
aI100
asbasg1258
(lp2124
(I212
I212
tp2125
asg1261
I00
sg1262
(iCode.Engine.DungeonGenerator
DungeonPiece
p2126
(dp2127
g128
(lp2128
(lp2129
I0
aI0
aI13
aa(lp2130
I14
aI10
aI1
aa(lp2131
I0
aI0
aI7
aasg1269
(lp2132
(lp2133
I1
aI1
aI0
aa(lp2134
I0
aI0
aI0
aa(lp2135
I1
aI1
aI0
aasg1274
I00
sbsg1274
I00
sbs(I27
I26
tp2136
(iCode.Engine.DungeonGenerator
DungeonRoom
p2137
(dp2138
g184
I00
sg185
(lp2139
(I27
I26
tp2140
a(I28
I26
tp2141
a(I29
I26
tp2142
a(I30
I26
tp2143
a(I30
I27
tp2144
asg192
(lp2145
sg194
(lp2146
sg127
I1
sg196
(lp2147
g74
ag74
ag81
ag81
ag81
asg198
I00
sg199
I01
sg200
I1368101710
sg201
(lp2148
I27
aI26
asg203
(lp2149
g205
(g206
g207
Ntp2150
Rp2151
(dp2152
g211
Nsg212
I0
sg213
F4.7123889803846897
sg214
(iCode.Units.Buffs
BuffStruct
p2153
(dp2154
g217
g2151
sg214
(lp2155
sbsg219
(lp2156
F4437.2320644312467
aF4247.5187150459851
asg221
F0.40000000000000002
sg222
I0
sg223
F0.40000000000000002
sg201
(lp2157
F4437.2320644312467
aF4247.5187150459851
asg225
(lp2158
(iCode.Units.Abilities
EnemyProjectileShotAbil
p2159
(dp2160
g229
I3
sg230
I00
sg231
g770
sg233
(dp2161
S'damageType'
p2162
(lp2163
g74
asS'pic'
p2164
(lp2165
g770
asS'damage'
p2166
(lp2167
g74
asS'range'
p2168
(lp2169
g780
asS'cooldown'
p2170
(lp2171
g783
asS'speed'
p2172
(lp2173
g240
assg245
I00
sg246
I0
sg247
I01
sg248
(lp2174
sg250
I30
sg251
F1.0
sg252
F55.0
sg253
(lp2175
I0
aI70
asg255
g2151
sg256
I1
sg257
g2151
sg258
(lp2176
I2
asg260
I00
sbasg261
I99
sg262
g1427
sg264
I00
sg265
I00
sg266
(lp2177
I4574
aI4262
asg268
F1.2802544320331675
sg269
(lp2178
F-1.0139596523591201
aF-0.73101697886422057
asg271
(I220
I214
tp2179
sg273
g274
sg125
I10
sg275
I0
sg276
I0
sg277
I6
sg278
F-2.2941592011592427
sg279
S'Orc'
p2180
sg281
(lp2181
(I220
I214
tp2182
a(I221
I214
tp2183
a(I222
I214
tp2184
a(I223
I214
tp2185
asg127
I1
sg288
I0
sg289
I00
sg290
I20
sg291
(lp2186
I55
aI70
asg293
F-2.2941592011592427
sg294
I0
sg295
(lp2187
F-24.055159501097105
aF-4.6242087567008383
asg297
F0.79999999999999982
sg298
F0.0
sg299
g302
sg304
I2851
sg666
g812
sg668
g722
sg670
F3.9890261060203436
sg723
I0
sg671
I00
sg672
I01
sg673
(dp2188
sg309
I01
sg675
(dp2189
sg677
F0.23682405573898357
sg726
I0
sg696
F0.42444109134760843
sg697
(dp2190
g666
g812
sg869
g870
sg399
I80
sg728
g816
sg390
I0
sg737
F0.080000000000000002
sg738
F2.5
sg739
I45
sg740
g825
sg742
I0
sg397
I80
sg743
I90
sg298
I20
sg372
I50
sg744
I230
sg745
g826
sg748
I200
sg749
I4
ssg699
I1
sg750
I00
sg751
I0
sg712
g302
sg709
Nsg710
(lp2191
I0
aI0
asg753
g2137
sg258
(lp2192
I2
asg246
I1
sg755
I0
sg716
I01
sg756
(lp2193
I220
aI214
asg252
I5
sg360
g261
sg717
I2
sg758
I37
sg720
I0
sg665
g2159
sbag205
(g206
g207
Ntp2194
Rp2195
(dp2196
g211
Nsg212
I0
sg213
F1.5707963267948966
sg214
(iCode.Units.Buffs
BuffStruct
p2197
(dp2198
g217
g2195
sg214
(lp2199
sbsg219
(lp2200
F4451.2789380306367
aF4262.0100872693529
asg221
F1.6000000000000001
sg222
I0
sg223
F0.40000000000000002
sg201
(lp2201
F4451.2789380306367
aF4262.0100872693529
asg225
(lp2202
(iCode.Units.Abilities
EnemyProjectileShotAbil
p2203
(dp2204
g229
I3
sg230
I00
sg231
g770
sg233
(dp2205
S'damageType'
p2206
(lp2207
g74
asS'pic'
p2208
(lp2209
g770
asS'damage'
p2210
(lp2211
g74
asS'range'
p2212
(lp2213
g780
asS'cooldown'
p2214
(lp2215
g783
asS'speed'
p2216
(lp2217
g240
assg245
I00
sg246
I0
sg247
I01
sg248
(lp2218
sg250
I30
sg251
F1.0
sg252
F55.0
sg253
(lp2219
I0
aI70
asg255
g2195
sg256
I1
sg257
g2195
sg258
(lp2220
I2
asg260
I00
sbasg261
I99
sg262
g263
sg264
I00
sg265
I00
sg266
(lp2221
I4610
aI4181
asg268
F1.4085601698226491
sg269
(lp2222
F1.2498421190165727
aF-0.019866492699103393
asg271
(I230
I214
tp2223
sg273
g274
sg125
I10
sg275
I0
sg276
I0
sg277
I3
sg278
F0.59574580291399437
sg279
g2180
sg281
(lp2224
(I230
I214
tp2225
asg127
I1
sg288
I0
sg289
I00
sg290
I20
sg291
(lp2226
I28
aI70
asg293
F0.59574580291399437
sg294
I0
sg295
(lp2227
F21.240154132534379
aF-38.964285196761473
asg297
F0.67999999999999972
sg298
F0.0
sg299
g302
sg304
I2714
sg666
g812
sg668
g722
sg670
F0.59574580291399437
sg723
F1.5707963267948966
sg671
I00
sg672
I01
sg673
(dp2228
sg309
I01
sg675
(dp2229
sg677
F0.81276467603233071
sg726
I0
sg696
F0.29485089460300762
sg697
(dp2230
g666
g812
sg399
I80
sg728
g816
sg390
I0
sg737
F0.080000000000000002
sg738
F2.5
sg739
I45
sg740
g825
sg742
I0
sg397
I80
sg743
I90
sg298
I20
sg372
I50
sg744
I230
sg745
g826
sg748
I200
sg749
I4
ssg699
I1
sg750
I00
sg751
I0
sg712
g302
sg709
Nsg710
(lp2231
I0
aI0
asg753
g2137
sg258
(lp2232
I2
asg246
I1
sg755
I74
sg716
I01
sg756
(I4845
I4270
tp2233
sg252
I5
sg360
g261
sg717
I2
sg758
I16
sg720
I0
sg665
g2203
sbag205
(g206
g207
Ntp2234
Rp2235
(dp2236
g211
Nsg212
I0
sg213
F3.5961062437183515
sg214
(iCode.Units.Buffs
BuffStruct
p2237
(dp2238
g217
g2235
sg214
(lp2239
sbsg219
(lp2240
F4476.1846459106428
aF4319.9253142625867
asg221
F0.80000000000000004
sg222
I0
sg223
F0.40000000000000002
sg201
(lp2241
F4476.1846459106428
aF4319.9253142625867
asg225
(lp2242
(iCode.Units.Abilities
EnemyProjectileShotAbil
p2243
(dp2244
g229
I3
sg230
I00
sg231
g770
sg233
(dp2245
S'damageType'
p2246
(lp2247
g74
asS'pic'
p2248
(lp2249
g770
asS'damage'
p2250
(lp2251
g74
asS'range'
p2252
(lp2253
g780
asS'cooldown'
p2254
(lp2255
g783
asS'speed'
p2256
(lp2257
g240
assg245
I00
sg246
I0
sg247
I01
sg248
(lp2258
sg250
I30
sg251
F1.0
sg252
F55.0
sg253
(lp2259
I0
aI70
asg255
g2235
sg256
I1
sg257
g2235
sg258
(lp2260
I2
asg260
I00
sbasg261
I99
sg262
g263
sg264
I00
sg265
I00
sg266
(lp2261
I4868
aI4435
asg268
F2.6555054293098301
sg269
(lp2262
F-1.1586630815049652
aF0.46904143053403952
asg271
(I225
I211
tp2263
sg273
g274
sg125
I10
sg275
I0
sg276
I0
sg277
I8
sg278
F-3.0738436685623922
sg279
g2180
sg281
(lp2264
(I225
I211
tp2265
a(I226
I211
tp2266
a(I227
I211
tp2267
a(I228
I211
tp2268
a(I229
I211
tp2269
a(I230
I211
tp2270
a(I231
I211
tp2271
asg127
I1
sg288
I0
sg289
I00
sg290
I20
sg291
(lp2272
I43
aI70
asg293
F-3.0738436685623922
sg294
I0
sg295
(lp2273
F-11.727194278653599
aF28.800884053414315
asg297
F0.83999999999999986
sg298
F0.0
sg299
g302
sg304
I2422
sg666
g812
sg668
g722
sg670
F3.209341638617194
sg723
F-1.5707963267948966
sg671
I00
sg672
I01
sg673
(dp2274
sg309
I01
sg675
(dp2275
sg677
F0.89278594575642767
sg726
I0
sg696
F0.30769412504135762
sg697
(dp2276
g666
g812
sg399
I80
sg728
g816
sg390
I0
sg737
F0.080000000000000002
sg738
F2.5
sg739
I45
sg740
g825
sg742
I0
sg397
I80
sg743
I90
sg298
I20
sg372
I50
sg744
I230
sg745
g826
sg748
I200
sg749
I4
ssg699
I1
sg750
I00
sg751
I0
sg712
g302
sg709
Nsg710
(lp2277
I0
aI0
asg753
g2137
sg258
(lp2278
sg246
I1
sg755
I0
sg716
I01
sg756
(lp2279
I225
aI211
asg252
I5
sg360
g261
sg717
I2
sg758
I9
sg720
I0
sg665
g2243
sbag205
(g206
g207
Ntp2280
Rp2281
(dp2282
g211
Nsg212
I0
sg213
F0.25225668386070754
sg214
(iCode.Units.Buffs
BuffStruct
p2283
(dp2284
g217
g2281
sg214
(lp2285
sbsg219
(lp2286
F4383.588665860344
aF4258.5350925437269
asg221
F1.2000000000000002
sg222
I0
sg223
F0.40000000000000002
sg201
(lp2287
F4383.588665860344
aF4258.5350925437269
asg225
(lp2288
(iCode.Units.Abilities
EnemyProjectileShotAbil
p2289
(dp2290
g229
I3
sg230
I00
sg231
S'Slash'
p2291
sg233
(dp2292
S'damageType'
p2293
(lp2294
g74
asS'pic'
p2295
(lp2296
g2291
asS'damage'
p2297
(lp2298
g73
asS'range'
p2299
(lp2300
S'50'
p2301
asS'cooldown'
p2302
(lp2303
S'80'
p2304
asS'speed'
p2305
(lp2306
g240
assg245
I00
sg246
I0
sg247
I01
sg248
(lp2307
sg250
I30
sg251
F2.0
sg252
F50.0
sg253
(lp2308
I0
aI80
asg255
g2281
sg256
I1
sg257
g2281
sg258
(lp2309
I2
asg260
I00
sbasg261
I99
sg262
g263
sg264
I00
sg265
I00
sg266
(lp2310
I4912
aI4272
asg268
F3.0808924285146659
sg269
(lp2311
F0.64729465158709854
aF-0.37882665432455592
asg271
(I225
I214
tp2312
sg273
g274
sg125
I10
sg275
I0
sg276
I0
sg277
I5
sg278
F-0.14428974570160977
sg279
S'OrcArmour'
p2313
sg281
(lp2314
(I225
I214
tp2315
a(I226
I214
tp2316
a(I227
I214
tp2317
a(I228
I214
tp2318
asg127
I1
sg288
I0
sg289
I00
sg290
I20
sg291
(lp2319
I11
aI70
asg293
F-0.14428974570160977
sg294
I0
sg295
(lp2320
F9.5390298017979926
aF-25.030919607188061
asg297
F0.2000000000000004
sg298
F0.0
sg299
g302
sg304
I1388
sg666
S'OrcArmour'
p2321
sg668
g722
sg670
F6.1388955614779768
sg723
F-1.5707963267948966
sg671
I00
sg672
I01
sg673
(dp2322
sg309
I01
sg675
(dp2323
sg677
F0.69248411068959792
sg726
I0
sg696
F0.66522471177298459
sg697
(dp2324
g666
g2321
sg869
S'F1MedEnemy'
p2325
sg399
I150
sg728
(lp2326
(lp2327
g731
a(lp2328
S'-pic'
p2329
ag2291
aS'-cooldown'
p2330
ag2304
aS'-speed'
p2331
ag240
aS'-damage'
p2332
ag73
aS'-range'
p2333
ag2301
aS'-damageType'
p2334
ag74
aaasg390
I0
sg737
F0.10000000000000001
sg738
F1.5
sg739
I45
sg740
(lp2335
F0.0
aF0.0
aF0.29999999999999999
aF-0.20000000000000001
aF0.0
aF-0.10000000000000001
aF-0.10000000000000001
aF0.0
aF0.0
aF-0.20000000000000001
asg742
I0
sg397
I80
sg743
I90
sg298
I20
sg372
I70
sg744
I230
sg745
(dp2336
g827
F0.0
ssg748
I200
sg749
I4
ssg699
I1
sg750
I00
sg751
I0
sg712
g302
sg709
Nsg710
(lp2337
I0
aI0
asg753
g2137
sg258
(lp2338
I2
asg246
I1
sg755
I0
sg716
I01
sg756
(lp2339
I225
aI214
asg252
I5
sg360
g261
sg717
I2
sg758
I20
sg720
I0
sg665
g2289
sbag205
(g206
g207
Ntp2340
Rp2341
(dp2342
g211
Nsg212
I0
sg213
F2.026918111886141
sg214
(iCode.Units.Buffs
BuffStruct
p2343
(dp2344
g217
g2341
sg214
(lp2345
sbsg219
(lp2346
F4368.7281585538549
aF4290.0926814014001
asg221
F1.6000000000000001
sg222
I0
sg223
F0.40000000000000002
sg201
(lp2347
F4368.7281585538549
aF4290.0926814014001
asg225
(lp2348
(iCode.Units.Abilities
EnemyProjectileShotAbil
p2349
(dp2350
g229
I3
sg230
I00
sg231
g2291
sg233
(dp2351
S'damageType'
p2352
(lp2353
g74
asS'pic'
p2354
(lp2355
g2291
asS'damage'
p2356
(lp2357
g73
asS'range'
p2358
(lp2359
g2301
asS'cooldown'
p2360
(lp2361
g2304
asS'speed'
p2362
(lp2363
g240
assg245
I00
sg246
I0
sg247
I01
sg248
(lp2364
sg250
I30
sg251
F2.0
sg252
F50.0
sg253
(lp2365
I0
aI80
asg255
g2341
sg256
I1
sg257
g2341
sg258
(lp2366
I2
asg260
I00
sbasg261
I99
sg262
g263
sg264
I00
sg265
I00
sg266
(lp2367
I4756
aI4197
asg268
F5.7826973905143824
sg269
(lp2368
F-0.15378959738225861
aF0.73406318511215563
asg271
(I228
I214
tp2369
sg273
g274
sg125
I10
sg275
I0
sg276
I0
sg277
I7
sg278
F1.3201179909357681
sg279
g2313
sg281
(lp2370
(I228
I214
tp2371
a(I229
I214
tp2372
a(I230
I214
tp2373
a(I231
I214
tp2374
a(I232
I214
tp2375
a(I233
I214
tp2376
a(I234
I214
tp2377
a(I235
I214
tp2378
a(I236
I214
tp2379
a(I237
I214
tp2380
a(I238
I214
tp2381
asg127
I1
sg288
I0
sg289
I00
sg290
I20
sg291
(lp2382
I70
aI70
asg293
F1.3201179909357681
sg294
I0
sg295
(lp2383
F-16.992843393540205
aF23.82717837946845
asg297
F0.10000000000000053
sg298
F0.0
sg299
g302
sg304
I1599
sg666
g2321
sg668
g722
sg670
F1.3201179909357681
sg723
F0.0
sg671
I00
sg672
I01
sg673
(dp2384
sg309
I01
sg675
(dp2385
sg677
F0.40525377484280112
sg726
I0
sg696
F0.17737879849484783
sg697
(dp2386
g666
g2321
sg399
I150
sg728
g2326
sg390
I0
sg737
F0.10000000000000001
sg738
F1.5
sg739
I45
sg740
g2335
sg742
I0
sg397
I80
sg743
I90
sg298
I20
sg372
I70
sg744
I230
sg745
g2336
sg748
I200
sg749
I4
ssg699
I1
sg750
I00
sg751
I0
sg712
g302
sg709
Nsg710
(lp2387
I0
aI0
asg753
g2137
sg258
(lp2388
sg246
I1
sg755
I0
sg716
I01
sg756
(lp2389
I228
aI214
asg252
I5
sg360
g261
sg717
I2
sg758
I13
sg720
I0
sg665
g2349
sbag205
(g206
g207
Ntp2390
Rp2391
(dp2392
g211
Nsg212
I0
sg213
F1.376910368428989
sg214
(iCode.Units.Buffs
BuffStruct
p2393
(dp2394
g217
g2391
sg214
(lp2395
sbsg219
(lp2396
F4375.7843860624262
aF4248.7742156790746
asg221
F1.2000000000000002
sg222
I0
sg223
F0.40000000000000002
sg201
(lp2397
F4375.7843860624262
aF4248.7742156790746
asg225
(lp2398
(iCode.Units.Abilities
EnemyProjectileShotAbil
p2399
(dp2400
g229
I3
sg230
I00
sg231
g2291
sg233
(dp2401
S'damageType'
p2402
(lp2403
g74
asS'pic'
p2404
(lp2405
g2291
asS'damage'
p2406
(lp2407
g73
asS'range'
p2408
(lp2409
g2301
asS'cooldown'
p2410
(lp2411
g2304
asS'speed'
p2412
(lp2413
g240
assg245
I00
sg246
I0
sg247
I01
sg248
(lp2414
sg250
I30
sg251
F2.0
sg252
F50.0
sg253
(lp2415
I0
aI80
asg255
g2391
sg256
I1
sg257
g2391
sg258
(lp2416
I2
asg260
I00
sbasg261
I99
sg262
g263
sg264
I00
sg265
I00
sg266
(lp2417
I4550
aI4313
asg268
F2.1604856179896754
sg269
(lp2418
F-0.69575954329844514
aF-0.28003331571286122
asg271
(I235
I215
tp2419
sg273
g274
sg125
I10
sg275
I0
sg276
I0
sg277
I4
sg278
F2.9724234455142717
sg279
g2313
sg281
(lp2420
(I235
I215
tp2421
a(I236
I215
tp2422
a(I237
I215
tp2423
a(I238
I215
tp2424
asg127
I1
sg288
I0
sg289
I00
sg290
I20
sg291
(lp2425
I27
aI70
asg293
F2.9724234455142717
sg294
I0
sg295
(lp2426
F-15.144692060629753
aF-23.350382325162428
asg297
F0.30000000000000027
sg298
F0.0
sg299
g302
sg304
I1893
sg666
g2321
sg668
g722
sg670
F2.9724234455142717
sg723
F0.0
sg671
I00
sg672
I01
sg673
(dp2427
sg309
I01
sg675
(dp2428
sg677
F0.75444594618906302
sg726
I0
sg696
F0.50211717725028249
sg697
(dp2429
g666
g2321
sg399
I150
sg728
g2326
sg390
I0
sg737
F0.10000000000000001
sg738
F1.5
sg739
I45
sg740
g2335
sg742
I0
sg397
I80
sg743
I90
sg298
I20
sg372
I70
sg744
I230
sg745
g2336
sg748
I200
sg749
I4
ssg699
I1
sg750
I00
sg751
I0
sg712
g302
sg709
Nsg710
(lp2430
I0
aI0
asg753
g2137
sg258
(lp2431
I2
asg246
I1
sg755
I0
sg716
I01
sg756
(lp2432
I235
aI215
asg252
I5
sg360
g261
sg717
I2
sg758
I7
sg720
I0
sg665
g2399
sbag205
(g206
g207
Ntp2433
Rp2434
(dp2435
g211
Nsg212
I0
sg213
F5.8238715732070441
sg214
(iCode.Units.Buffs
BuffStruct
p2436
(dp2437
g217
g2434
sg214
(lp2438
sbsg219
(lp2439
F4373.3194606576571
aF4232.7561466403204
asg221
F0.80000000000000004
sg222
I0
sg223
F0.40000000000000002
sg201
(lp2440
F4373.3194606576571
aF4232.7561466403204
asg225
(lp2441
(iCode.Units.Abilities
EnemyProjectileShotAbil
p2442
(dp2443
g229
I3
sg230
I00
sg231
S'Slash'
p2444
sg233
(dp2445
S'cooldown'
p2446
(lp2447
S'70'
p2448
asS'damageType'
p2449
(lp2450
g74
asS'range'
p2451
(lp2452
S'55'
p2453
asS'pic'
p2454
(lp2455
g2444
asS'speed'
p2456
(lp2457
g240
assg245
I00
sg246
I0
sg247
I01
sg248
(lp2458
sg250
I30
sg251
I5
sg252
F55.0
sg253
(lp2459
I0
aI70
asg255
g2434
sg256
I1
sg257
g2434
sg258
(lp2460
I2
asg260
I00
sba(iCode.Units.Abilities
EnemyFireball
p2461
(dp2462
g230
I00
sg1374
(I217
I211
tp2463
sg231
S'BigSlash'
p2464
sg233
(dp2465
S'cooldown'
p2466
(lp2467
S'200'
p2468
asS'damageType'
p2469
(lp2470
g74
asS'pic'
p2471
(lp2472
g2464
assg245
I00
sg246
I0
sg247
I01
sg248
(lp2473
sg1393
(lp2474
(iCode.Engine.Effects
FlashingSquare
p2475
(dp2476
g1397
I0
sg1398
I15
sg1399
(lp2477
I216
aI211
asg127
I1
sba(iCode.Engine.Effects
FlashingSquare
p2478
(dp2479
g1397
I0
sg1398
I15
sg1399
(lp2480
I216
aI210
asg127
I1
sba(iCode.Engine.Effects
FlashingSquare
p2481
(dp2482
g1397
I0
sg1398
I15
sg1399
(lp2483
I218
aI211
asg127
I1
sba(iCode.Engine.Effects
FlashingSquare
p2484
(dp2485
g1397
I0
sg1398
I15
sg1399
(lp2486
I218
aI210
asg127
I1
sba(iCode.Engine.Effects
FlashingSquare
p2487
(dp2488
g1397
I0
sg1398
I15
sg1399
(lp2489
I217
aI210
asg127
I1
sba(iCode.Engine.Effects
FlashingSquare
p2490
(dp2491
g1397
I0
sg1398
I15
sg1399
(lp2492
I218
aI212
asg127
I1
sba(iCode.Engine.Effects
FlashingSquare
p2493
(dp2494
g1397
I0
sg1398
I15
sg1399
(lp2495
I216
aI212
asg127
I1
sba(iCode.Engine.Effects
FlashingSquare
p2496
(dp2497
g1397
I0
sg1398
I15
sg1399
(lp2498
I217
aI212
asg127
I1
sba(iCode.Engine.Effects
FlashingSquare
p2499
(dp2500
g1397
I0
sg1398
I15
sg1399
(lp2501
I217
aI211
asg127
I1
sbasg250
I60
sg251
I5
sg252
I80
sg253
(lp2502
I0
aI200
asg255
g2434
sg256
I1
sg257
g2434
sg258
(lp2503
I2
asg260
I00
sbasg261
I99
sg262
g263
sg264
I00
sg265
I00
sg266
(lp2504
I4692
aI4306
asg268
F1.9966918867546815
sg269
(lp2505
F-0.78566961484715958
aF0.97222592863280288
asg271
(I231
I211
tp2506
sg273
g274
sg125
I10
sg275
I0
sg276
I0
sg277
I2
sg278
F2.0410434681454031
sg279
S'OrcSword'
p2507
sg281
(lp2508
(I231
I211
tp2509
a(I232
I211
tp2510
a(I233
I211
tp2511
a(I234
I211
tp2512
a(I235
I211
tp2513
a(I236
I211
tp2514
asg127
I1
sg288
I0
sg289
I00
sg290
I20
sg291
(lp2515
I19
aI70
asg293
F2.0410434681454031
sg294
I0
sg295
(lp2516
F13.065165676299932
aF-29.532017744712729
asg297
F0.71999999999999975
sg298
F0.0
sg299
g302
sg304
I2202
sg666
S'OrcSword'
p2517
sg668
g722
sg670
F2.0410434681454031
sg723
F1.5357207474816419
sg671
I00
sg672
I01
sg673
(dp2518
sg309
I01
sg675
(dp2519
sg677
F0.37331319345260383
sg726
I0
sg696
F0.019602946524952203
sg697
(dp2520
g666
g2517
sg399
I80
sg728
(lp2521
(lp2522
g731
a(lp2523
S'-pic'
p2524
ag2444
aS'-cooldown'
p2525
ag2448
aS'-speed'
p2526
ag240
aS'-range'
p2527
ag2453
aS'-damageType'
p2528
ag74
aaa(lp2529
g1469
a(lp2530
S'-pic'
p2531
ag2464
aS'-cooldown'
p2532
ag2468
aS'-damageType'
p2533
ag74
aaasg390
I0
sg737
F0.10000000000000001
sg738
F2.5
sg739
I45
sg740
(lp2534
F0.0
aF-0.20000000000000001
aF-0.20000000000000001
aF0.10000000000000001
aF0.0
aF-0.10000000000000001
aF-0.10000000000000001
aF0.0
aF0.0
aF-0.20000000000000001
asg742
I0
sg397
I130
sg743
I90
sg298
I20
sg372
I70
sg744
I230
sg745
(dp2535
g827
F0.0
ssg748
I200
sg749
I4
ssg699
I1
sg750
I00
sg751
I0
sg712
g302
sg709
Nsg710
(lp2536
I0
aI0
asg753
g2137
sg258
(lp2537
sg246
I1
sg755
I0
sg716
I01
sg756
(lp2538
I231
aI211
asg252
I5
sg360
g261
sg717
I2
sg758
I24
sg720
I0
sg665
g2461
sbag205
(g206
g207
Ntp2539
Rp2540
(dp2541
g211
Nsg212
I0
sg213
F4.7123889803846897
sg214
(iCode.Units.Buffs
BuffStruct
p2542
(dp2543
g217
g2540
sg214
(lp2544
sbsg219
(lp2545
F4359.556618865211
aF4286.7041531043642
asg221
F1.6000000000000001
sg222
I0
sg223
F0.40000000000000002
sg201
(lp2546
F4359.556618865211
aF4286.7041531043642
asg225
(lp2547
(iCode.Units.Abilities
EnemyProjectileShotAbil
p2548
(dp2549
g229
I2
sg230
I00
sg231
g932
sg233
(dp2550
S'cooldown'
p2551
(lp2552
g936
asS'damageType'
p2553
(lp2554
g939
asS'pic'
p2555
(lp2556
g932
asS'speed'
p2557
(lp2558
g73
assg245
I00
sg246
I0
sg247
I01
sg248
(lp2559
sg250
I30
sg251
I5
sg252
I80
sg253
(lp2560
I0
aI80
asg255
g2540
sg256
I9
sg257
g2540
sg258
(lp2561
I2
asg260
I00
sba(iCode.Units.Abilities
EnemyMultiShotAbil
p2562
(dp2563
g229
I1
sg230
I00
sg231
g949
sg233
(dp2564
S'cooldown'
p2565
(lp2566
g953
asS'damageType'
p2567
(lp2568
g939
asS'pic'
p2569
(lp2570
g949
asS'speed'
p2571
(lp2572
g74
assg245
I00
sg246
I0
sg247
I01
sg248
(lp2573
sg250
I30
sg251
I5
sg252
I80
sg253
(lp2574
I0
aI400
asg255
g2540
sg256
I9
sg257
g2540
sg258
(lp2575
I2
asg963
I3
sg260
I00
sbasg261
I99
sg262
g1427
sg264
I00
sg265
I00
sg266
(lp2576
I4901
aI4276
asg268
F1.8950244797922937
sg269
(lp2577
F-0.68924687025769737
aF0.72452657083089012
asg271
(I223
I213
tp2578
sg273
g274
sg125
I10
sg275
I0
sg276
I0
sg277
I10
sg278
F1.6988225340737013
sg279
g967
sg281
(lp2579
(I223
I213
tp2580
a(I224
I213
tp2581
a(I225
I213
tp2582
a(I226
I213
tp2583
a(I227
I213
tp2584
a(I228
I213
tp2585
a(I229
I213
tp2586
a(I230
I213
tp2587
a(I231
I213
tp2588
a(I232
I213
tp2589
a(I233
I213
tp2590
asg127
I1
sg288
I0
sg289
I00
sg290
I4
sg291
(lp2591
I1
aI70
asg293
F1.6988225340737013
sg294
I0
sg295
(lp2592
F-47.083805800909317
aF29.446676528453807
asg297
F0.17000000000000015
sg298
F0.0
sg299
g302
sg304
I2069
sg666
g986
sg668
g722
sg670
F1.6988225340737013
sg723
I0
sg671
I00
sg672
I01
sg673
(dp2593
sg309
I01
sg675
(dp2594
sg677
F0.52904598645548451
sg726
I0
sg696
F0.42417465380936215
sg697
(dp2595
g666
g986
sg399
I130
sg728
g990
sg390
I0
sg737
F0.080000000000000002
sg738
I2
sg739
I80
sg740
g1004
sg742
I0
sg397
I80
sg743
I90
sg298
I4
sg372
I40
sg744
I230
sg745
g1005
sg748
I200
sg749
I2
ssg699
I1
sg750
I00
sg751
I0
sg712
g302
sg709
Nsg710
(lp2596
I0
aI0
asg753
g2137
sg258
(lp2597
sg246
I1
sg755
I0
sg716
I01
sg756
(lp2598
I223
aI213
asg252
I5
sg360
g261
sg717
I2
sg758
I40
sg720
I0
sg665
g2548
sbag205
(g206
g207
Ntp2599
Rp2600
(dp2601
g211
Nsg212
I0
sg213
F0.69435046906498465
sg214
(iCode.Units.Buffs
BuffStruct
p2602
(dp2603
g217
g2600
sg214
(lp2604
sbsg219
(lp2605
F4364.8269372519289
aF4221.7417123727519
asg221
F0.40000000000000002
sg222
I0
sg223
F0.40000000000000002
sg201
(lp2606
F4364.8269372519289
aF4221.7417123727519
asg225
(lp2607
(iCode.Units.Abilities
EnemyProjectileShotAbil
p2608
(dp2609
g229
I2
sg230
I00
sg231
g932
sg233
(dp2610
S'cooldown'
p2611
(lp2612
g936
asS'damageType'
p2613
(lp2614
g939
asS'pic'
p2615
(lp2616
g932
asS'speed'
p2617
(lp2618
g73
assg245
I00
sg246
I0
sg247
I01
sg248
(lp2619
sg250
I30
sg251
I5
sg252
I80
sg253
(lp2620
I0
aI80
asg255
g2600
sg256
I9
sg257
g2600
sg258
(lp2621
I2
asg260
I00
sba(iCode.Units.Abilities
EnemyMultiShotAbil
p2622
(dp2623
g229
I1
sg230
I00
sg231
g949
sg233
(dp2624
S'cooldown'
p2625
(lp2626
g953
asS'damageType'
p2627
(lp2628
g939
asS'pic'
p2629
(lp2630
g949
asS'speed'
p2631
(lp2632
g74
assg245
I00
sg246
I0
sg247
I01
sg248
(lp2633
sg250
I30
sg251
I5
sg252
I80
sg253
(lp2634
I0
aI400
asg255
g2600
sg256
I9
sg257
g2600
sg258
(lp2635
I2
asg963
I3
sg260
I00
sbasg261
I99
sg262
g263
sg264
I00
sg265
I00
sg266
(lp2636
I4894
aI4298
asg268
F3.3619817955314306
sg269
(lp2637
F-0.95094308469072009
aF-0.30936588318510172
asg271
(I230
I212
tp2638
sg273
g274
sg125
I10
sg275
I0
sg276
I0
sg277
I7
sg278
F3.0304080229539436
sg279
g967
sg281
(lp2639
(I230
I212
tp2640
a(I231
I212
tp2641
a(I232
I212
tp2642
a(I233
I212
tp2643
a(I234
I212
tp2644
a(I235
I212
tp2645
a(I236
I212
tp2646
a(I237
I212
tp2647
a(I238
I213
tp2648
asg127
I1
sg288
I0
sg289
I00
sg290
I4
sg291
(lp2649
I34
aI70
asg293
F3.0304080229539436
sg294
I0
sg295
(lp2650
F-51.803646753886873
aF-27.409202680385441
asg297
F0.20000000000000018
sg298
F0.0
sg299
g302
sg304
I1916
sg666
g986
sg668
g722
sg670
F3.0304080229539436
sg723
F-1.9513027039074313
sg671
I00
sg672
I01
sg673
(dp2651
sg309
I01
sg675
(dp2652
sg677
F0.87525672925813314
sg726
I0
sg696
F0.3049998362084918
sg697
(dp2653
g666
g986
sg399
I130
sg728
g990
sg390
I0
sg737
F0.080000000000000002
sg738
I2
sg739
I80
sg740
g1004
sg742
I0
sg397
I80
sg743
I90
sg298
I4
sg372
I40
sg744
I230
sg745
g1005
sg748
I200
sg749
I2
ssg699
I1
sg750
I00
sg751
I0
sg712
g302
sg709
Nsg710
(lp2654
I0
aI0
asg753
g2137
sg258
(lp2655
sg246
I1
sg755
I0
sg716
I01
sg756
(lp2656
I230
aI212
asg252
I5
sg360
g261
sg717
I2
sg758
I20
sg720
I0
sg665
g2608
sbag205
(g206
g207
Ntp2657
Rp2658
(dp2659
g211
Nsg212
I0
sg213
F2.0167224044604133
sg214
(iCode.Units.Buffs
BuffStruct
p2660
(dp2661
g217
g2658
sg214
(lp2662
sbsg219
(lp2663
F4538.7824368058555
aF4277.6893162174101
asg221
F0.80000000000000004
sg222
I0
sg223
F0.40000000000000002
sg201
(lp2664
F4538.7824368058555
aF4277.6893162174101
asg225
(lp2665
(iCode.Units.Abilities
EnemyProjectileShotAbil
p2666
(dp2667
g229
I2
sg230
I00
sg231
g932
sg233
(dp2668
S'cooldown'
p2669
(lp2670
g936
asS'damageType'
p2671
(lp2672
g939
asS'pic'
p2673
(lp2674
g932
asS'speed'
p2675
(lp2676
g73
assg245
I00
sg246
I0
sg247
I01
sg248
(lp2677
sg250
I30
sg251
I5
sg252
I80
sg253
(lp2678
I0
aI80
asg255
g2658
sg256
I9
sg257
g2658
sg258
(lp2679
I2
asg260
I00
sba(iCode.Units.Abilities
EnemyMultiShotAbil
p2680
(dp2681
g229
I1
sg230
I00
sg231
g949
sg233
(dp2682
S'cooldown'
p2683
(lp2684
g953
asS'damageType'
p2685
(lp2686
g939
asS'pic'
p2687
(lp2688
g949
asS'speed'
p2689
(lp2690
g74
assg245
I00
sg246
I0
sg247
I01
sg248
(lp2691
sg250
I30
sg251
I5
sg252
I80
sg253
(lp2692
I0
aI400
asg255
g2658
sg256
I9
sg257
g2658
sg258
(lp2693
I2
asg963
I3
sg260
I00
sbasg261
I99
sg262
g263
sg264
I00
sg265
I00
sg266
(lp2694
I4890
aI4447
asg268
F2.1778444617934287
sg269
(lp2695
F-0.34390580542077903
aF-0.93900415174688401
asg271
(I230
I210
tp2696
sg273
g274
sg125
I10
sg275
I0
sg276
I0
sg277
I6
sg278
F-3.0592953303023416
sg279
g967
sg281
(lp2697
(I230
I210
tp2698
asg127
I1
sg288
I0
sg289
I00
sg290
I4
sg291
(lp2699
I15
aI70
asg293
F-3.0592953303023416
sg294
I0
sg295
(lp2700
F-3.3179572617924729
aF-59.133981304760113
asg297
F0.20000000000000018
sg298
F0.0
sg299
g302
sg304
I2507
sg666
g986
sg668
g722
sg670
F3.4171414826127497
sg723
F-3.1415385325979877
sg671
I00
sg672
I01
sg673
(dp2701
sg309
I01
sg675
(dp2702
sg677
F0.37101486002826578
sg726
I0
sg696
F0.82298084109523606
sg697
(dp2703
g666
g986
sg399
I130
sg728
g990
sg390
I0
sg737
F0.080000000000000002
sg738
I2
sg739
I80
sg740
g1004
sg742
I0
sg397
I80
sg743
I90
sg298
I4
sg372
I40
sg744
I230
sg745
g1005
sg748
I200
sg749
I2
ssg699
I1
sg750
I00
sg751
I0
sg712
g302
sg709
Nsg710
(lp2704
I0
aI0
asg753
g2137
sg258
(lp2705
sg246
I1
sg755
I0
sg716
I01
sg756
(lp2706
I230
aI210
asg252
I5
sg360
g261
sg717
I2
sg758
I11
sg720
I0
sg665
g2666
sbag205
(g206
g207
Ntp2707
Rp2708
(dp2709
g211
Nsg212
I0
sg213
F4.7123889803846897
sg214
(iCode.Units.Buffs
BuffStruct
p2710
(dp2711
g217
g2708
sg214
(lp2712
sbsg219
(lp2713
F4405.1063066511097
aF4279.6984560451792
asg221
F0.80000000000000004
sg222
I0
sg223
F0.40000000000000002
sg201
(lp2714
F4405.1063066511097
aF4279.6984560451792
asg225
(lp2715
(iCode.Units.Abilities
EnemyProjectileShotAbil
p2716
(dp2717
g229
I2
sg230
I00
sg231
g932
sg233
(dp2718
S'cooldown'
p2719
(lp2720
g936
asS'damageType'
p2721
(lp2722
g939
asS'pic'
p2723
(lp2724
g932
asS'speed'
p2725
(lp2726
g73
assg245
I00
sg246
I0
sg247
I01
sg248
(lp2727
sg250
I30
sg251
I5
sg252
I80
sg253
(lp2728
I0
aI80
asg255
g2708
sg256
I9
sg257
g2708
sg258
(lp2729
I2
asg260
I00
sba(iCode.Units.Abilities
EnemyMultiShotAbil
p2730
(dp2731
g229
I1
sg230
I00
sg231
g949
sg233
(dp2732
S'cooldown'
p2733
(lp2734
g953
asS'damageType'
p2735
(lp2736
g939
asS'pic'
p2737
(lp2738
g949
asS'speed'
p2739
(lp2740
g74
assg245
I00
sg246
I0
sg247
I01
sg248
(lp2741
sg250
I30
sg251
I5
sg252
I80
sg253
(lp2742
I0
aI400
asg255
g2708
sg256
I9
sg257
g2708
sg258
(lp2743
I2
asg963
I3
sg260
I00
sbasg261
I99
sg262
g1427
sg264
I00
sg265
I00
sg266
(lp2744
I4912
aI4474
asg268
F4.1476559384470377
sg269
(lp2745
F-0.83098578020914859
aF0.5562936572442585
asg271
(I225
I209
tp2746
sg273
g274
sg125
I10
sg275
I0
sg276
I0
sg277
I9
sg278
F2.1402202756069562
sg279
g967
sg281
(lp2747
(I225
I209
tp2748
a(I226
I209
tp2749
a(I227
I209
tp2750
a(I228
I209
tp2751
asg127
I1
sg288
I0
sg289
I00
sg290
I4
sg291
(lp2752
I22
aI70
asg293
F2.1402202756069562
sg294
I0
sg295
(lp2753
F-46.331383144275769
aF9.0366703226921423
asg297
F0.17000000000000015
sg298
F0.0
sg299
g302
sg304
I2087
sg666
g986
sg668
g722
sg670
F2.1402202756069562
sg723
I0
sg671
I00
sg672
I01
sg673
(dp2754
sg309
I01
sg675
(dp2755
sg677
F0.20728311625022011
sg726
I0
sg696
F0.41784932062824309
sg697
(dp2756
g666
g986
sg399
I130
sg728
g990
sg390
I0
sg737
F0.080000000000000002
sg738
I2
sg739
I80
sg740
g1004
sg742
I0
sg397
I80
sg743
I90
sg298
I4
sg372
I40
sg744
I230
sg745
g1005
sg748
I200
sg749
I2
ssg699
I1
sg750
I00
sg751
I0
sg712
g302
sg709
Nsg710
(lp2757
I0
aI0
asg753
g2137
sg258
(lp2758
sg246
I1
sg755
I0
sg716
I01
sg756
(lp2759
I225
aI209
asg252
I5
sg360
g261
sg717
I2
sg758
I35
sg720
I0
sg665
g2716
sbag205
(g206
g207
Ntp2760
Rp2761
(dp2762
g211
Nsg212
I0
sg213
F3.1415926535897931
sg214
(iCode.Units.Buffs
BuffStruct
p2763
(dp2764
g217
g2761
sg214
(lp2765
sbsg219
(lp2766
F4460.7857098839231
aF4198.9512498711292
asg221
F0.40000000000000002
sg222
I0
sg223
F0.40000000000000002
sg201
(lp2767
F4460.7857098839231
aF4198.9512498711292
asg225
(lp2768
(iCode.Units.Abilities
EnemyProjectileShotAbil
p2769
(dp2770
g229
I2
sg230
I00
sg231
g932
sg233
(dp2771
S'cooldown'
p2772
(lp2773
g936
asS'damageType'
p2774
(lp2775
g939
asS'pic'
p2776
(lp2777
g932
asS'speed'
p2778
(lp2779
g73
assg245
I00
sg246
I0
sg247
I01
sg248
(lp2780
sg250
I30
sg251
I5
sg252
I80
sg253
(lp2781
I0
aI80
asg255
g2761
sg256
I9
sg257
g2761
sg258
(lp2782
I2
asg260
I00
sba(iCode.Units.Abilities
EnemyMultiShotAbil
p2783
(dp2784
g229
I1
sg230
I00
sg231
g949
sg233
(dp2785
S'cooldown'
p2786
(lp2787
g953
asS'damageType'
p2788
(lp2789
g939
asS'pic'
p2790
(lp2791
g949
asS'speed'
p2792
(lp2793
g74
assg245
I00
sg246
I0
sg247
I01
sg248
(lp2794
sg250
I30
sg251
I5
sg252
I80
sg253
(lp2795
I0
aI400
asg255
g2761
sg256
I9
sg257
g2761
sg258
(lp2796
I2
asg963
I3
sg260
I00
sbasg261
I99
sg262
g263
sg264
I00
sg265
I00
sg266
(lp2797
I4617
aI4263
asg268
F4.1594309188983729
sg269
(lp2798
F-0.25795552984680592
aF-0.96615679090997109
asg271
(I234
I214
tp2799
sg273
g274
sg125
I10
sg275
I0
sg276
I0
sg277
I1
sg278
F-2.9025798214880134
sg279
g967
sg281
(lp2800
(I234
I214
tp2801
asg127
I1
sg288
I0
sg289
I00
sg290
I4
sg291
(lp2802
I70
aI70
asg293
F-2.9025798214880134
sg294
I0
sg295
(lp2803
F27.294572864194283
aF-73.386467653733121
asg297
F0.20000000000000018
sg298
F0.0
sg299
g302
sg304
I2301
sg666
g986
sg668
g722
sg670
F3.3806054856915728
sg723
F3.1415926535897931
sg671
I00
sg672
I01
sg673
(dp2804
sg309
I01
sg675
(dp2805
sg677
F0.78838584744002538
sg726
I0
sg696
F0.11012857959488498
sg697
(dp2806
g666
g986
sg399
I130
sg728
g990
sg390
I0
sg737
F0.080000000000000002
sg738
I2
sg739
I80
sg740
g1004
sg742
I0
sg397
I80
sg743
I90
sg298
I4
sg372
I40
sg744
I230
sg745
g1005
sg748
I200
sg749
I2
ssg699
I1
sg750
I00
sg751
I0
sg712
g302
sg709
Nsg710
(lp2807
I0
aI0
asg753
g2137
sg258
(lp2808
sg246
I1
sg755
I98
sg716
I01
sg756
(I4767
I4219
tp2809
sg252
I5
sg360
g261
sg717
I2
sg758
I22
sg720
I0
sg665
g2783
sbag205
(g206
g207
Ntp2810
Rp2811
(dp2812
g211
Nsg212
I0
sg213
F3.622124441112355
sg214
(iCode.Units.Buffs
BuffStruct
p2813
(dp2814
g217
g2811
sg214
(lp2815
sbsg219
(lp2816
F4424.72202954363
aF4233.9798222193986
asg221
F0.40000000000000002
sg222
I0
sg223
F0.40000000000000002
sg201
(lp2817
F4424.72202954363
aF4233.9798222193986
asg225
(lp2818
(iCode.Units.Abilities
EnemyProjectileShotAbil
p2819
(dp2820
g229
I2
sg230
I00
sg231
g932
sg233
(dp2821
S'cooldown'
p2822
(lp2823
g936
asS'damageType'
p2824
(lp2825
g939
asS'pic'
p2826
(lp2827
g932
asS'speed'
p2828
(lp2829
g73
assg245
I00
sg246
I0
sg247
I01
sg248
(lp2830
sg250
I30
sg251
I5
sg252
I80
sg253
(lp2831
I0
aI80
asg255
g2811
sg256
I9
sg257
g2811
sg258
(lp2832
I2
asg260
I00
sba(iCode.Units.Abilities
EnemyMultiShotAbil
p2833
(dp2834
g229
I1
sg230
I00
sg231
g949
sg233
(dp2835
S'cooldown'
p2836
(lp2837
g953
asS'damageType'
p2838
(lp2839
g939
asS'pic'
p2840
(lp2841
g949
asS'speed'
p2842
(lp2843
g74
assg245
I00
sg246
I0
sg247
I01
sg248
(lp2844
sg250
I30
sg251
I5
sg252
I80
sg253
(lp2845
I0
aI400
asg255
g2811
sg256
I9
sg257
g2811
sg258
(lp2846
I2
asg963
I3
sg260
I00
sbasg261
I99
sg262
g263
sg264
I00
sg265
I00
sg266
(lp2847
I4694
aI4199
asg268
F5.6083730816338351
sg269
(lp2848
F-0.51282212959303553
aF-0.8584948825704577
asg271
(I218
I212
tp2849
sg273
g274
sg125
I10
sg275
I0
sg276
I0
sg277
I3
sg278
F2.9472937517863165
sg279
g967
sg281
(lp2850
(I218
I212
tp2851
a(I219
I212
tp2852
a(I220
I212
tp2853
a(I221
I212
tp2854
a(I222
I212
tp2855
a(I223
I212
tp2856
a(I224
I212
tp2857
a(I225
I212
tp2858
a(I226
I212
tp2859
a(I227
I212
tp2860
a(I228
I212
tp2861
a(I229
I212
tp2862
a(I230
I212
tp2863
a(I231
I212
tp2864
a(I232
I212
tp2865
a(I233
I212
tp2866
a(I234
I212
tp2867
a(I235
I212
tp2868
asg127
I1
sg288
I0
sg289
I00
sg290
I4
sg291
(lp2869
I18
aI70
asg293
F2.9472937517863165
sg294
I0
sg295
(lp2870
F63.149619751393352
aF-33.330500493265234
asg297
F0.38000000000000034
sg298
F0.0
sg299
g302
sg304
I2226
sg666
g986
sg668
g722
sg670
F2.9472937517863165
sg723
F0.0
sg671
I00
sg672
I01
sg673
(dp2871
sg309
I01
sg675
(dp2872
sg677
F0.86618826955517436
sg726
I0
sg696
F0.36817530825309097
sg697
(dp2873
g666
g986
sg399
I130
sg728
g990
sg390
I0
sg737
F0.080000000000000002
sg738
I2
sg739
I80
sg740
g1004
sg742
I0
sg397
I80
sg743
I90
sg298
I4
sg372
I40
sg744
I230
sg745
g1005
sg748
I200
sg749
I2
ssg699
I1
sg750
I00
sg751
I0
sg712
g302
sg709
Nsg710
(lp2874
I0
aI0
asg753
g2137
sg258
(lp2875
I2
asg246
I1
sg755
I0
sg716
I01
sg756
(lp2876
I218
aI212
asg252
I5
sg360
g261
sg717
I2
sg758
I11
sg720
I0
sg665
g2819
sbasg1255
I0
sg1256
(lp2877
sg1258
(lp2878
(I244
I212
tp2879
asg1261
I00
sg1262
(iCode.Engine.DungeonGenerator
DungeonPiece
p2880
(dp2881
g128
(lp2882
(lp2883
I14
aI10
aI10
aI9
aa(lp2884
I0
aI0
aI0
aI7
aasg1269
(lp2885
(lp2886
I0
aI0
aI0
aI0
aa(lp2887
I1
aI1
aI1
aI0
aasg1274
I00
sbsg1274
I01
sbs(I30
I26
tp2888
g2137
s(I33
I22
tp2889
g1275
s(I32
I26
tp2890
g1275
s(I35
I22
tp2891
g1275
s(I34
I21
tp2892
g182
s(I33
I27
tp2893
g1275
s(I31
I26
tp2894
(iCode.Engine.DungeonGenerator
DungeonRoom
p2895
(dp2896
g184
I00
sg185
(lp2897
(I31
I26
tp2898
asg192
(lp2899
sg194
(lp2900
sg127
I1
sg196
(lp2901
g81
asg198
I00
sg199
I01
sg200
I1368101817
sg201
(lp2902
I31
aI26
asg203
(lp2903
g205
(g206
g207
Ntp2904
Rp2905
(dp2906
g211
Nsg212
I0
sg213
F4.7123889803846897
sg214
(iCode.Units.Buffs
BuffStruct
p2907
(dp2908
g217
g2905
sg214
(lp2909
sbsg219
(lp2910
F5086.4047623235538
aF4199.9870822255052
asg221
F0.80000000000000004
sg222
I0
sg223
F0.40000000000000002
sg201
(lp2911
F5086.4047623235538
aF4199.9870822255052
asg225
(lp2912
(iCode.Units.Abilities
EnemyProjectileShotAbil
p2913
(dp2914
g229
I2
sg230
I00
sg231
g932
sg233
(dp2915
S'cooldown'
p2916
(lp2917
g936
asS'damageType'
p2918
(lp2919
g939
asS'pic'
p2920
(lp2921
g932
asS'speed'
p2922
(lp2923
g73
assg245
I00
sg246
I0
sg247
I01
sg248
(lp2924
sg250
I30
sg251
I5
sg252
I80
sg253
(lp2925
I0
aI80
asg255
g2905
sg256
I9
sg257
g2905
sg258
(lp2926
I2
asg260
I00
sba(iCode.Units.Abilities
EnemyMultiShotAbil
p2927
(dp2928
g229
I1
sg230
I00
sg231
g949
sg233
(dp2929
S'cooldown'
p2930
(lp2931
g953
asS'damageType'
p2932
(lp2933
g939
asS'pic'
p2934
(lp2935
g949
asS'speed'
p2936
(lp2937
g74
assg245
I00
sg246
I0
sg247
I01
sg248
(lp2938
sg250
I30
sg251
I5
sg252
I80
sg253
(lp2939
I0
aI400
asg255
g2905
sg256
I9
sg257
g2905
sg258
(lp2940
I2
asg963
I3
sg260
I00
sbasg261
I99
sg262
g1427
sg264
I00
sg265
I00
sg266
(lp2941
I5045
aI4282
asg268
F0.60612077356343408
sg269
(lp2942
F-0.23164843933856741
aF-0.97279956854020344
asg271
Nsg273
g274
sg125
I10
sg275
I0
sg276
I0
sg277
I2
sg278
F-3.0095933449735646
sg279
g967
sg281
(lp2943
sg127
I1
sg288
I0
sg289
I00
sg290
I4
sg291
(lp2944
I40
aI70
asg293
F-3.0095933449735646
sg294
I0
sg295
(lp2945
F40.220615325148174
aF-31.298574830364561
asg297
F0.41000000000000014
sg298
F0.0
sg299
g302
sg304
I272
sg666
g986
sg668
g722
sg670
F3.2735919622060217
sg723
I0
sg671
I00
sg672
I01
sg673
(dp2946
sg309
I01
sg675
(dp2947
sg677
F0.453172184554825
sg726
I0
sg696
F0.72497003391775949
sg697
(dp2948
g666
g986
sg399
I130
sg728
g990
sg390
I0
sg737
F0.080000000000000002
sg738
I2
sg739
I80
sg740
g1004
sg742
I0
sg397
I80
sg743
I90
sg298
I4
sg372
I40
sg744
I230
sg745
g1005
sg748
I200
sg749
I2
ssg699
I3
sg750
I00
sg751
I0
sg712
g302
sg709
Nsg710
(lp2949
I0
aI0
asg753
g2895
sg258
(lp2950
sg246
I1
sg755
I0
sg716
I01
sg756
(lp2951
I253
aI211
asg252
I5
sg360
g261
sg717
I2
sg758
I34
sg720
I0
sg665
g2913
sbasg1255
I0
sg1256
(lp2952
sg1258
(lp2953
sg1261
I00
sg1262
(iCode.Engine.DungeonGenerator
DungeonPiece
p2954
(dp2955
g128
(lp2956
(lp2957
I15
aasg1269
(lp2958
(lp2959
I0
aasg1274
I00
sbsg1274
I00
sbs(I36
I26
tp2960
g1275
s(I34
I25
tp2961
g1275
s(I37
I27
tp2962
g1275
s(I28
I26
tp2963
g2137
s(I26
I25
tp2964
g2056
s(I30
I27
tp2965
g2137
s(I32
I27
tp2966
g1275
s(I35
I25
tp2967
g1275
s(I33
I26
tp2968
g1275
s(I36
I27
tp2969
g1275
s(I34
I22
tp2970
g1275
s(I37
I26
tp2971
g1275
s(I36
I22
tp2972
g1275
s(I37
I23
tp2973
g1275
s(I29
I26
tp2974
g2137
s(I34
I26
tp2975
g1275
s(I35
I24
tp2976
g1275
s(I34
I19
tp2977
g182
s(I33
I25
tp2978
g1275
s(I36
I19
tp2979
g182
s(I26
I26
tp2980
g2056
s(I32
I24
tp2981
g1275
s(I25
I25
tp2982
g2056
s(I34
I23
tp2983
g1275
s(I37
I25
tp2984
g1275
s(I36
I23
tp2985
g1275
s(I36
I24
tp2986
g1275
s(I37
I22
tp2987
g1275
s(I34
I27
tp2988
g1275
s(I35
I27
tp2989
g1275
s(I32
I22
tp2990
g1275
s(I33
I24
tp2991
g1275
s(I33
I23
tp2992
g1275
s(I32
I25
tp2993
g1275
s(I35
I23
tp2994
g1275
s(I34
I20
tp2995
g182
s(I37
I24
tp2996
g1275
s(I24
I25
tp2997
g2056
s(I36
I25
tp2998
g1275
s(I35
I19
tp2999
g182
s(I34
I24
tp3000
g1275
s(I35
I26
tp3001
g1275
s(I28
I25
tp3002
(iCode.Engine.DungeonGenerator
DungeonRoom
p3003
(dp3004
g184
I00
sg185
(lp3005
(I28
I25
tp3006
asg192
(lp3007
sg194
(lp3008
sg127
I1
sg196
(lp3009
g74
asg198
I00
sg199
I01
sg200
I1368101776
sg201
(lp3010
I28
aI25
asg203
(lp3011
g205
(g206
g207
Ntp3012
Rp3013
(dp3014
g211
Nsg212
I0
sg213
F4.7123889803846897
sg214
(iCode.Units.Buffs
BuffStruct
p3015
(dp3016
g217
g3013
sg214
(lp3017
sbsg219
(lp3018
F4566.9440719298673
aF4159.9989999999998
asg221
F0.80000000000000004
sg222
I0
sg223
F0.40000000000000002
sg201
(lp3019
F4566.9440719298673
aF4159.9989999999998
asg225
(lp3020
(iCode.Units.Abilities
EnemyProjectileShotAbil
p3021
(dp3022
g229
I2
sg230
I00
sg231
g932
sg233
(dp3023
S'cooldown'
p3024
(lp3025
g936
asS'damageType'
p3026
(lp3027
g939
asS'pic'
p3028
(lp3029
g932
asS'speed'
p3030
(lp3031
g73
assg245
I00
sg246
I0
sg247
I01
sg248
(lp3032
sg250
I30
sg251
I5
sg252
I80
sg253
(lp3033
I0
aI80
asg255
g3013
sg256
I9
sg257
g3013
sg258
(lp3034
I2
asg260
I00
sba(iCode.Units.Abilities
EnemyMultiShotAbil
p3035
(dp3036
g229
I1
sg230
I00
sg231
g949
sg233
(dp3037
S'cooldown'
p3038
(lp3039
g953
asS'damageType'
p3040
(lp3041
g939
asS'pic'
p3042
(lp3043
g949
asS'speed'
p3044
(lp3045
g74
assg245
I00
sg246
I0
sg247
I01
sg248
(lp3046
sg250
I30
sg251
I5
sg252
I80
sg253
(lp3047
I0
aI400
asg255
g3013
sg256
I9
sg257
g3013
sg258
(lp3048
I2
asg963
I3
sg260
I00
sbasg261
I99
sg262
g1427
sg264
I00
sg265
I00
sg266
(lp3049
I4525
aI4065
asg268
F0.86239204894201626
sg269
(lp3050
F-0.99504748126623843
aF-0.09940075465364831
asg271
(I227
I207
tp3051
sg273
g274
sg125
I10
sg275
I0
sg276
I0
sg277
I8
sg278
F-2.1500110198419162
sg279
g967
sg281
(lp3052
(I227
I207
tp3053
a(I227
I206
tp3054
a(I227
I205
tp3055
a(I227
I204
tp3056
asg127
I1
sg288
I0
sg289
I00
sg290
I4
sg291
(lp3057
I53
aI70
asg293
F-2.1500110198419162
sg294
I0
sg295
(lp3058
F-24.717896500162144
aF32.456102281525098
asg297
F0.20000000000000018
sg298
F0.0
sg299
g302
sg304
I302
sg666
g986
sg668
g722
sg670
F4.1331742873376704
sg723
I0
sg671
I00
sg672
I01
sg673
(dp3059
sg309
I01
sg675
(dp3060
sg677
F0.75146329282013935
sg726
I0
sg696
F0.63967885819749859
sg697
(dp3061
g666
g986
sg399
I130
sg728
g990
sg390
I0
sg737
F0.080000000000000002
sg738
I2
sg739
I80
sg740
g1004
sg742
I0
sg749
I2
sg743
I90
sg298
I4
sg372
I40
sg744
I230
sg745
g1005
sg748
I200
sg397
I80
ssg699
I1
sg750
I00
sg751
I0
sg712
g302
sg709
Nsg710
(lp3062
I0
aI0
asg753
g3003
sg258
(lp3063
I2
asg246
I1
sg755
I0
sg716
I01
sg756
(lp3064
I227
aI207
asg252
I5
sg360
g261
sg717
I2
sg758
I33
sg720
I0
sg665
g3021
sbag205
(g206
g207
Ntp3065
Rp3066
(dp3067
g211
Nsg212
I0
sg213
F4.7123889803846897
sg214
(iCode.Units.Buffs
BuffStruct
p3068
(dp3069
g217
g3066
sg214
(lp3070
sbsg219
(lp3071
F4614.6732169386614
aF4105.3383531720538
asg221
F0.40000000000000002
sg222
I0
sg223
F0.40000000000000002
sg201
(lp3072
F4614.6732169386614
aF4105.3383531720538
asg225
(lp3073
(iCode.Units.Abilities
EnemyProjectileShotAbil
p3074
(dp3075
g229
I2
sg230
I00
sg231
g932
sg233
(dp3076
S'cooldown'
p3077
(lp3078
g936
asS'damageType'
p3079
(lp3080
g939
asS'pic'
p3081
(lp3082
g932
asS'speed'
p3083
(lp3084
g73
assg245
I00
sg246
I0
sg247
I01
sg248
(lp3085
sg250
I30
sg251
I5
sg252
I80
sg253
(lp3086
I0
aI80
asg255
g3066
sg256
I9
sg257
g3066
sg258
(lp3087
I2
asg260
I00
sba(iCode.Units.Abilities
EnemyMultiShotAbil
p3088
(dp3089
g229
I1
sg230
I00
sg231
g949
sg233
(dp3090
S'cooldown'
p3091
(lp3092
g953
asS'damageType'
p3093
(lp3094
g939
asS'pic'
p3095
(lp3096
g949
asS'speed'
p3097
(lp3098
g74
assg245
I00
sg246
I0
sg247
I01
sg248
(lp3099
sg250
I30
sg251
I5
sg252
I80
sg253
(lp3100
I0
aI400
asg255
g3066
sg256
I9
sg257
g3066
sg258
(lp3101
I2
asg963
I3
sg260
I00
sbasg261
I99
sg262
g1427
sg264
I00
sg265
I00
sg266
(lp3102
I4593
aI4021
asg268
F4.4264726160322345
sg269
(lp3103
F0.19743406202920222
aF0.98031616897338236
asg271
(I230
I203
tp3104
sg273
g274
sg125
I10
sg275
I0
sg276
I0
sg277
I5
sg278
F1.525430620254528
sg279
g967
sg281
(lp3105
(I230
I203
tp3106
a(I230
I202
tp3107
asg127
I1
sg288
I0
sg289
I00
sg290
I4
sg291
(lp3108
I36
aI70
asg293
F1.525430620254528
sg294
I0
sg295
(lp3109
F11.411512664232358
aF46.217116231385432
asg297
F0.17000000000000015
sg298
F0.0
sg299
g302
sg304
I351
sg666
g986
sg668
g722
sg670
F1.525430620254528
sg723
I0
sg671
I00
sg672
I01
sg673
(dp3110
sg309
I01
sg675
(dp3111
sg677
F0.80320433750572184
sg726
I0
sg696
F0.90829175642777249
sg697
(dp3112
g666
g986
sg399
I130
sg728
g990
sg390
I0
sg737
F0.080000000000000002
sg738
I2
sg739
I80
sg740
g1004
sg742
I0
sg397
I80
sg743
I90
sg298
I4
sg372
I40
sg744
I230
sg745
g1005
sg748
I200
sg749
I2
ssg699
I1
sg750
I00
sg751
I0
sg712
g302
sg709
Nsg710
(lp3113
I0
aI0
asg753
g3003
sg258
(lp3114
sg246
I1
sg755
I0
sg716
I01
sg756
(lp3115
I230
aI203
asg252
I5
sg360
g261
sg717
I2
sg758
I40
sg720
I0
sg665
g3074
sbasg1255
I0
sg1256
(lp3116
sg1258
(lp3117
sg1261
I00
sg1262
(iCode.Engine.DungeonGenerator
DungeonPiece
p3118
(dp3119
g128
(lp3120
(lp3121
I15
aasg1269
(lp3122
(lp3123
I0
aasg1274
I00
sbsg1274
I00
sbs(I32
I23
tp3124
g1275
ssS'doors'
p3125
(dp3126
(I26
I24
tp3127
(lp3128
(I0
I-1
tp3129
as(I27
I26
tp3130
(lp3131
(I-1
I0
tp3132
as(I30
I26
tp3133
(lp3134
(I1
I0
tp3135
a(I0
I-1
tp3136
as(I32
I26
tp3137
(lp3138
(I-1
I0
tp3139
as(I26
I23
tp3140
(lp3141
(I0
I1
tp3142
as(I34
I21
tp3143
(lp3144
(I0
I1
tp3145
as(I24
I26
tp3146
(lp3147
(I0
I-1
tp3148
as(I31
I26
tp3149
(lp3150
(I-1
I0
tp3151
a(I1
I0
tp3152
as(I37
I27
tp3153
(lp3154
(I1
I0
tp3155
as(I38
I27
tp3156
(lp3157
(I-1
I0
tp3158
as(I28
I26
tp3159
(lp3160
(I0
I-1
tp3161
as(I34
I28
tp3162
(lp3163
(I0
I-1
tp3164
as(I36
I18
tp3165
(lp3166
(I0
I1
tp3167
as(I37
I19
tp3168
(lp3169
(I-1
I0
tp3170
as(I31
I22
tp3171
(lp3172
(I1
I0
tp3173
as(I34
I22
tp3174
(lp3175
(I0
I-1
tp3176
as(I23
I25
tp3177
(lp3178
(I1
I0
tp3179
as(I34
I19
tp3180
(lp3181
(I-1
I0
tp3182
as(I36
I19
tp3183
(lp3184
(I1
I0
tp3185
a(I0
I-1
tp3186
a(I0
I1
tp3187
as(I26
I26
tp3188
(lp3189
(I1
I0
tp3190
a(I0
I1
tp3191
as(I24
I24
tp3192
(lp3193
(I0
I1
tp3194
as(I30
I25
tp3195
(lp3196
(I0
I1
tp3197
as(I34
I27
tp3198
(lp3199
(I0
I1
tp3200
as(I32
I22
tp3201
(lp3202
(I-1
I0
tp3203
as(I26
I27
tp3204
(lp3205
(I0
I-1
tp3206
as(I24
I25
tp3207
(lp3208
(I-1
I0
tp3209
a(I0
I-1
tp3210
a(I0
I1
tp3211
as(I33
I19
tp3212
(lp3213
(I1
I0
tp3214
as(I36
I20
tp3215
(lp3216
(I0
I-1
tp3217
as(I28
I25
tp3218
(lp3219
(I0
I1
tp3220
assS'maze'
p3221
(lp3222
(lp3223
S'.'
p3224
ag3224
ag3224
ag3224
ag3224
ag3224
ag3224
ag3224
ag3224
ag3224
ag3224
ag3224
ag3224
ag3224
ag3224
ag3224
aS'#'
p3225
ag3225
ag3224
ag3225
ag3224
ag3224
ag3224
ag3224
ag3224
ag3224
ag3224
ag3225
ag3225
ag3224
ag3224
ag3224
ag3224
ag3224
ag3224
ag3224
ag3224
ag3224
ag3224
ag3225
ag3225
ag3225
ag3225
ag3225
ag3225
ag3225
ag3225
ag3225
ag3225
ag3225
aa(lp3226
g3224
ag3225
ag3225
ag3225
ag3224
ag3225
ag3225
ag3225
ag3225
ag3225
ag3224
ag3225
ag3225
ag3225
ag3224
ag3225
ag3225
ag3224
ag3224
ag3224
ag3224
ag3225
ag3225
ag3225
ag3224
ag3225
ag3225
ag3225
ag3224
ag3224
ag3225
ag3224
ag3225
ag3225
ag3224
ag3225
ag3225
ag3225
ag3224
ag3224
ag3225
ag3225
ag3225
ag3225
ag3225
ag3225
ag3225
ag3225
ag3225
ag3225
aa(lp3227
g3224
ag3225
aS'A'
p3228
ag3228
ag3228
ag3228
ag3228
ag3228
ag3224
ag3224
ag3224
ag3224
ag3228
ag3228
ag3228
ag3228
ag3228
ag3228
ag3225
ag3225
ag3224
ag3224
ag3228
ag3228
ag3228
ag3228
ag3228
ag3228
ag3225
ag3224
ag3225
ag3225
ag3228
ag3228
ag3228
ag3228
ag3228
ag3228
ag3225
ag3224
ag3224
ag3225
ag3228
ag3228
ag3228
ag3228
ag3228
ag3228
ag3225
ag3225
aa(lp3229
g3225
ag3225
ag3228
ag3228
ag3228
ag3228
ag3228
ag3228
ag3225
ag3225
ag3224
ag3225
ag3228
ag3228
ag3228
ag3228
ag3228
ag3228
ag3225
ag3224
ag3224
ag3225
ag3228
ag3228
ag3228
ag3228
ag3228
ag3228
ag3224
ag3224
ag3224
ag3225
ag3228
ag3228
ag3228
ag3228
ag3228
ag3228
ag3225
ag3225
ag3224
ag3224
ag3228
ag3228
ag3228
ag3228
ag3228
ag3228
ag3225
ag3225
aa(lp3230
g3224
ag3224
ag3228
ag3228
ag3228
ag3228
ag3228
ag3228
ag3225
ag3224
ag3224
ag3225
ag3228
ag3228
ag3228
ag3228
ag3228
ag3228
ag3225
ag3224
ag3225
ag3225
ag3228
ag3228
ag3228
ag3228
ag3228
ag3228
ag3225
ag3224
ag3225
ag3225
ag3228
ag3228
ag3228
ag3228
ag3228
ag3228
ag3224
ag3224
ag3224
ag3225
ag3228
ag3228
ag3228
ag3228
ag3228
ag3228
ag3225
ag3225
aa(lp3231
g3224
ag3225
ag3228
ag3228
ag3228
ag3228
ag3228
ag3228
ag3225
ag3225
ag3224
ag3224
ag3228
ag3228
ag3228
ag3228
ag3228
ag3228
ag3224
ag3224
ag3224
ag3224
ag3228
ag3228
ag3228
ag3228
ag3228
ag3228
ag3225
ag3224
ag3224
ag3224
ag3228
ag3228
ag3228
ag3228
ag3228
ag3228
ag3225
ag3225
ag3224
ag3225
ag3228
ag3228
ag3228
ag3228
ag3228
ag3228
ag3225
ag3225
aa(lp3232
g3224
ag3225
ag3228
ag3228
ag3228
ag3228
ag3228
ag3228
ag3224
ag3224
ag3224
ag3225
ag3228
ag3228
ag3228
ag3228
ag3228
ag3228
ag3225
ag3224
ag3225
ag3225
ag3228
ag3228
ag3228
ag3228
ag3228
ag3228
ag3225
ag3224
ag3225
ag3225
ag3228
ag3228
ag3228
ag3228
ag3228
ag3228
ag3225
ag3225
ag3225
ag3225
ag3228
ag3228
ag3228
ag3228
ag3228
ag3228
ag3225
ag3225
aa(lp3233
g3224
ag3225
ag3228
ag3228
ag3228
ag3228
ag3228
ag3228
ag3225
ag3225
ag3224
ag3225
ag3228
ag3228
ag3228
ag3228
ag3228
ag3228
ag3225
ag3224
ag3224
ag3225
ag3228
ag3228
ag3228
ag3228
ag3228
ag3228
ag3225
ag3224
ag3224
ag3225
ag3228
ag3228
ag3228
ag3228
ag3228
ag3228
ag3225
ag3225
ag3225
ag3224
ag3228
ag3228
ag3228
ag3228
ag3228
ag3228
ag3225
ag3225
aa(lp3234
g3224
ag3225
ag3224
ag3225
ag3225
ag3224
ag3225
ag3225
ag3224
ag3225
ag3224
ag3225
ag3224
ag3225
ag3225
ag3225
ag3225
ag3225
ag3225
ag3225
ag3224
ag3224
ag3224
ag3225
ag3225
ag3225
ag3225
ag3224
ag3224
ag3224
ag3225
ag3225
ag3224
ag3225
ag3225
ag3224
ag3225
ag3225
ag3224
ag3225
ag3225
ag3224
ag3225
ag3225
ag3224
ag3225
ag3225
ag3224
ag3225
ag3225
aa(lp3235
g3224
ag3224
ag3224
ag3224
ag3225
ag3224
ag3224
ag3224
ag3224
ag3224
ag3224
ag3224
ag3224
ag3224
ag3224
ag3225
ag3224
ag3224
ag3224
ag3225
ag3224
ag3225
ag3225
ag3225
ag3224
ag3225
ag3225
ag3225
ag3225
ag3224
ag3224
ag3225
ag3224
ag3225
ag3224
ag3224
ag3224
ag3224
ag3224
ag3224
ag3224
ag3224
ag3224
ag3224
ag3224
ag3224
ag3224
ag3224
ag3224
ag3225
aa(lp3236
g3225
ag3224
ag3225
ag3224
ag3224
ag3224
ag3225
ag3225
ag3225
ag3225
ag3225
ag3224
ag3225
ag3225
ag3224
ag3224
ag3224
ag3225
ag3224
ag3224
ag3224
ag3224
ag3224
ag3224
ag3224
ag3224
ag3225
ag3225
ag3225
ag3225
ag3224
ag3224
ag3224
ag3224
ag3224
ag3225
ag3225
ag3224
ag3225
ag3224
ag3225
ag3224
ag3225
ag3224
ag3225
ag3225
ag3224
ag3225
ag3224
ag3224
aa(lp3237
g3224
ag3224
ag3225
ag3225
ag3224
ag3225
ag3225
ag3224
ag3224
ag3224
ag3224
ag3224
ag3224
ag3225
ag3225
ag3224
ag3225
ag3225
ag3225
ag3224
ag3225
ag3225
ag3225
ag3225
ag3224
ag3225
ag3225
ag3224
ag3224
ag3224
ag3224
ag3225
ag3224
ag3225
ag3225
ag3225
ag3225
ag3225
ag3225
ag3225
ag3225
ag3224
ag3225
ag3225
ag3225
ag3225
ag3224
ag3225
ag3224
ag3225
aa(lp3238
g3224
ag3225
ag3228
ag3228
ag3228
ag3228
ag3228
ag3228
ag3225
ag3225
ag3225
ag3225
ag3228
ag3228
ag3228
ag3228
ag3228
ag3228
ag3224
ag3224
ag3224
ag3224
ag3228
ag3228
ag3228
ag3228
ag3228
ag3228
ag3225
ag3224
ag3225
ag3225
ag3228
ag3228
ag3228
ag3228
ag3228
ag3228
ag3224
ag3224
ag3225
ag3225
ag3228
ag3228
ag3228
ag3228
ag3228
ag3228
ag3225
ag3225
aa(lp3239
g3224
ag3225
ag3228
ag3228
ag3228
ag3228
ag3228
ag3228
ag3225
ag3224
ag3225
ag3225
ag3228
ag3228
ag3228
ag3228
ag3228
ag3228
ag3225
ag3225
ag3224
ag3225
ag3228
ag3228
ag3228
ag3228
ag3228
ag3228
ag3225
ag3224
ag3224
ag3225
ag3228
ag3228
ag3228
ag3228
ag3228
ag3228
ag3225
ag3224
ag3224
ag3225
ag3228
ag3228
ag3228
ag3228
ag3228
ag3228
ag3225
ag3224
aa(lp3240
g3224
ag3225
ag3228
ag3228
ag3228
ag3228
ag3228
ag3228
ag3225
ag3224
ag3224
ag3225
ag3228
ag3228
ag3228
ag3228
ag3228
ag3228
ag3225
ag3224
ag3224
ag3225
ag3228
ag3228
ag3228
ag3228
ag3228
ag3228
ag3225
ag3224
ag3225
ag3225
ag3228
ag3228
ag3228
ag3228
ag3228
ag3228
ag3225
ag3225
ag3224
ag3224
ag3228
ag3228
ag3228
ag3228
ag3228
ag3228
ag3225
ag3224
aa(lp3241
g3224
ag3224
ag3228
ag3228
ag3228
ag3228
ag3228
ag3228
ag3224
ag3224
ag3225
ag3225
ag3228
ag3228
ag3228
ag3228
ag3228
ag3228
ag3225
ag3225
ag3224
ag3224
ag3228
ag3228
ag3228
ag3228
ag3228
ag3228
ag3224
ag3224
ag3224
ag3224
ag3228
ag3228
ag3228
ag3228
ag3228
ag3228
ag3224
ag3224
ag3224
ag3225
ag3228
ag3228
ag3228
ag3228
ag3228
ag3228
ag3224
ag3224
aa(lp3242
g3224
ag3225
ag3228
ag3228
ag3228
ag3228
ag3228
ag3228
ag3225
ag3224
ag3224
ag3224
ag3228
ag3228
ag3228
ag3228
ag3228
ag3228
ag3225
ag3225
ag3224
ag3225
ag3228
ag3228
ag3228
ag3228
ag3228
ag3228
ag3225
ag3225
ag3224
ag3225
ag3228
ag3228
ag3228
ag3228
ag3228
ag3228
ag3225
ag3225
ag3224
ag3225
ag3228
ag3228
ag3228
ag3228
ag3228
ag3228
ag3225
ag3224
aa(lp3243
g3224
ag3225
ag3228
ag3228
ag3228
ag3228
ag3228
ag3228
ag3225
ag3224
ag3225
ag3225
ag3228
ag3228
ag3228
ag3228
ag3228
ag3228
ag3224
ag3225
ag3224
ag3225
ag3228
ag3228
ag3228
ag3228
ag3228
ag3228
ag3225
ag3225
ag3224
ag3225
ag3228
ag3228
ag3228
ag3228
ag3228
ag3228
ag3225
ag3224
ag3224
ag3224
ag3228
ag3228
ag3228
ag3228
ag3228
ag3228
ag3225
ag3224
aa(lp3244
g3225
ag3225
ag3224
ag3225
ag3225
ag3225
ag3225
ag3224
ag3224
ag3224
ag3225
ag3224
ag3225
ag3225
ag3225
ag3224
ag3225
ag3225
ag3224
ag3225
ag3224
ag3224
ag3224
ag3225
ag3225
ag3225
ag3224
ag3225
ag3224
ag3225
ag3224
ag3225
ag3225
ag3224
ag3225
ag3225
ag3224
ag3225
ag3224
ag3224
ag3225
ag3225
ag3225
ag3225
ag3225
ag3225
ag3225
ag3224
ag3225
ag3224
aa(lp3245
g3225
ag3224
ag3224
ag3224
ag3225
ag3224
ag3225
ag3225
ag3225
ag3224
ag3225
ag3224
ag3225
ag3224
ag3224
ag3224
ag3224
ag3224
ag3224
ag3224
ag3224
ag3225
ag3225
ag3225
ag3224
ag3225
ag3224
ag3225
ag3224
ag3225
ag3224
ag3224
ag3224
ag3224
ag3224
ag3224
ag3224
ag3224
ag3224
ag3225
ag3225
ag3224
ag3224
ag3224
ag3225
ag3224
ag3225
ag3224
ag3224
ag3224
aa(lp3246
g3224
ag3224
ag3225
ag3224
ag3224
ag3224
ag3224
ag3224
ag3224
ag3224
ag3224
ag3224
ag3225
ag3225
ag3224
ag3225
ag3224
ag3225
ag3224
ag3225
ag3224
ag3224
ag3224
ag3225
ag3224
ag3225
ag3224
ag3224
ag3224
ag3225
ag3224
ag3225
ag3224
ag3225
ag3224
ag3225
ag3224
ag3225
ag3224
ag3224
ag3224
ag3224
ag3225
ag3224
ag3224
ag3224
ag3224
ag3224
ag3225
ag3224
aa(lp3247
g3224
ag3225
ag3225
ag3225
ag3224
ag3225
ag3225
ag3225
ag3225
ag3224
ag3225
ag3225
ag3225
ag3225
ag3224
ag3225
ag3225
ag3225
ag3225
ag3225
ag3225
ag3225
ag3224
ag3225
ag3224
ag3225
ag3224
ag3225
ag3225
ag3225
ag3224
ag3225
ag3225
ag3225
ag3224
ag3225
ag3225
ag3225
ag3225
ag3224
ag3225
ag3225
ag3225
ag3225
ag3224
ag3225
ag3225
ag3224
ag3225
ag3224
aa(lp3248
g3224
ag3225
ag3228
ag3228
ag3228
ag3228
ag3228
ag3228
ag3225
ag3224
ag3224
ag3225
ag3228
ag3228
ag3228
ag3228
ag3228
ag3228
ag3225
ag3224
ag3225
ag3224
ag3224
ag3225
ag3224
ag3225
ag3224
ag3225
ag3224
ag3225
ag3224
ag3224
ag3228
ag3228
ag3228
ag3228
ag3228
ag3228
ag3224
ag3224
ag3224
ag3224
ag3228
ag3228
ag3228
ag3228
ag3228
ag3228
ag3225
ag3224
aa(lp3249
g3224
ag3225
ag3228
ag3228
ag3228
ag3228
ag3228
ag3228
ag3225
ag3224
ag3225
ag3225
ag3228
ag3228
ag3228
ag3228
ag3228
ag3228
ag3224
ag3224
ag3225
ag3225
ag3224
ag3225
ag3224
ag3225
ag3224
ag3224
ag3224
ag3225
ag3224
ag3225
ag3228
ag3228
ag3228
ag3228
ag3228
ag3228
ag3225
ag3224
ag3225
ag3225
ag3228
ag3228
ag3228
ag3228
ag3228
ag3228
ag3225
ag3224
aa(lp3250
g3224
ag3224
ag3228
ag3228
ag3228
ag3228
ag3228
ag3228
ag3224
ag3224
ag3225
ag3225
ag3228
ag3228
ag3228
ag3228
ag3228
ag3228
ag3225
ag3224
ag3225
ag3224
ag3224
ag3225
ag3224
ag3225
ag3224
ag3225
ag3225
ag3225
ag3224
ag3225
ag3228
ag3228
ag3228
ag3228
ag3228
ag3228
ag3225
ag3225
ag3225
ag3225
ag3228
ag3228
ag3228
ag3228
ag3228
ag3228
ag3224
ag3224
aa(lp3251
g3224
ag3225
ag3228
ag3228
ag3228
ag3228
ag3228
ag3228
ag3225
ag3224
ag3224
ag3225
ag3228
ag3228
ag3228
ag3228
ag3228
ag3228
ag3225
ag3224
ag3225
ag3225
ag3224
ag3224
ag3224
ag3224
ag3224
ag3225
ag3224
ag3225
ag3224
ag3225
ag3228
ag3228
ag3228
ag3228
ag3228
ag3228
ag3225
ag3224
ag3224
ag3225
ag3228
ag3228
ag3228
ag3228
ag3228
ag3228
ag3225
ag3224
aa(lp3252
g3224
ag3225
ag3228
ag3228
ag3228
ag3228
ag3228
ag3228
ag3225
ag3224
ag3225
ag3225
ag3228
ag3228
ag3228
ag3228
ag3228
ag3228
ag3224
ag3224
ag3225
ag3224
ag3224
ag3225
ag3224
ag3225
ag3224
ag3224
ag3224
ag3224
ag3224
ag3224
ag3228
ag3228
ag3228
ag3228
ag3228
ag3228
ag3225
ag3225
ag3224
ag3224
ag3228
ag3228
ag3228
ag3228
ag3228
ag3228
ag3225
ag3224
aa(lp3253
g3225
ag3225
ag3228
ag3228
ag3228
ag3228
ag3228
ag3228
ag3224
ag3224
ag3225
ag3224
ag3228
ag3228
ag3228
ag3228
ag3228
ag3228
ag3225
ag3224
ag3225
ag3225
ag3224
ag3225
ag3225
ag3225
ag3224
ag3225
ag3225
ag3225
ag3224
ag3225
ag3228
ag3228
ag3228
ag3228
ag3228
ag3228
ag3224
ag3225
ag3224
ag3225
ag3228
ag3228
ag3228
ag3228
ag3228
ag3228
ag3225
ag3225
aa(lp3254
g3225
ag3224
ag3225
ag3224
ag3225
ag3225
ag3225
ag3225
ag3225
ag3224
ag3225
ag3224
ag3225
ag3225
ag3225
ag3224
ag3225
ag3225
ag3224
ag3224
ag3224
ag3224
ag3224
ag3224
ag3225
ag3225
ag3224
ag3224
ag3224
ag3225
ag3225
ag3225
ag3225
ag3225
ag3224
ag3225
ag3225
ag3225
ag3224
ag3225
ag3224
ag3225
ag3225
ag3225
ag3225
ag3224
ag3225
ag3225
ag3224
ag3225
aa(lp3255
g3224
ag3224
ag3224
ag3224
ag3224
ag3224
ag3224
ag3224
ag3224
ag3224
ag3224
ag3224
ag3225
ag3224
ag3225
ag3224
ag3225
ag3225
ag3225
ag3225
ag3224
ag3225
ag3224
ag3225
ag3225
ag3224
ag3224
ag3225
ag3224
ag3224
ag3225
ag3224
ag3224
ag3224
ag3224
ag3224
ag3225
ag3225
ag3224
ag3225
ag3224
ag3225
ag3224
ag3225
ag3225
ag3224
ag3224
ag3224
ag3224
ag3224
aa(lp3256
g3225
ag3224
ag3225
ag3224
ag3225
ag3224
ag3225
ag3224
ag3225
ag3224
ag3225
ag3224
ag3224
ag3224
ag3224
ag3224
ag3224
ag3224
ag3224
ag3224
ag3224
ag3225
ag3225
ag3225
ag3224
ag3224
ag3225
ag3225
ag3225
ag3224
ag3224
ag3224
ag3225
ag3224
ag3225
ag3224
ag3224
ag3224
ag3224
ag3224
ag3224
ag3224
ag3224
ag3224
ag3224
ag3224
ag3225
ag3224
ag3225
ag3224
aa(lp3257
g3224
ag3224
ag3225
ag3225
ag3225
ag3224
ag3225
ag3225
ag3225
ag3224
ag3225
ag3225
ag3224
ag3225
ag3225
ag3224
ag3225
ag3225
ag3225
ag3225
ag3224
ag3224
ag3225
ag3225
ag3225
ag3224
ag3225
ag3225
ag3225
ag3225
ag3224
ag3225
ag3225
ag3225
ag3225
ag3225
ag3224
ag3225
ag3224
ag3225
ag3224
ag3225
ag3224
ag3225
ag3225
ag3224
ag3225
ag3225
ag3225
ag3224
aa(lp3258
g3225
ag3224
ag3228
ag3228
ag3228
ag3228
ag3228
ag3228
ag3225
ag3224
ag3225
ag3225
ag3228
ag3228
ag3228
ag3228
ag3228
ag3228
ag3224
ag3224
ag3224
ag3225
ag3228
ag3228
ag3228
ag3228
ag3228
ag3228
ag3225
ag3224
ag3224
ag3224
ag3228
ag3228
ag3228
ag3228
ag3228
ag3228
ag3225
ag3225
ag3224
ag3225
ag3228
ag3228
ag3228
ag3228
ag3228
ag3228
ag3225
ag3224
aa(lp3259
g3225
ag3225
ag3228
ag3228
ag3228
ag3228
ag3228
ag3228
ag3225
ag3224
ag3224
ag3225
ag3228
ag3228
ag3228
ag3228
ag3228
ag3228
ag3225
ag3225
ag3224
ag3224
ag3228
ag3228
ag3228
ag3228
ag3228
ag3228
ag3225
ag3225
ag3224
ag3225
ag3228
ag3228
ag3228
ag3228
ag3228
ag3228
ag3225
ag3225
ag3224
ag3225
ag3228
ag3228
ag3228
ag3228
ag3228
ag3228
ag3225
ag3224
aa(lp3260
g3225
ag3225
ag3228
ag3228
ag3228
ag3228
ag3228
ag3228
ag3224
ag3224
ag3225
ag3225
ag3228
ag3228
ag3228
ag3228
ag3228
ag3228
ag3225
ag3224
ag3224
ag3225
ag3228
ag3228
ag3228
ag3228
ag3228
ag3228
ag3225
ag3225
ag3224
ag3225
ag3228
ag3228
ag3228
ag3228
ag3228
ag3228
ag3224
ag3224
ag3224
ag3224
ag3228
ag3228
ag3228
ag3228
ag3228
ag3228
ag3224
ag3224
aa(lp3261
g3225
ag3225
ag3228
ag3228
ag3228
ag3228
ag3228
ag3228
ag3225
ag3225
ag3225
ag3225
ag3228
ag3228
ag3228
ag3228
ag3228
ag3228
ag3225
ag3225
ag3224
ag3225
ag3228
ag3228
ag3228
ag3228
ag3228
ag3228
ag3225
ag3224
ag3224
ag3224
ag3228
ag3228
ag3228
ag3228
ag3228
ag3228
ag3225
ag3224
ag3225
ag3225
ag3228
ag3228
ag3228
ag3228
ag3228
ag3228
ag3225
ag3224
aa(lp3262
g3225
ag3225
ag3228
ag3228
ag3228
ag3228
ag3228
ag3228
ag3225
ag3225
ag3224
ag3225
ag3228
ag3228
ag3228
ag3228
ag3228
ag3228
ag3225
ag3224
ag3224
ag3224
ag3228
ag3228
ag3228
ag3228
ag3228
ag3228
ag3224
ag3224
ag3225
ag3225
ag3228
ag3228
ag3228
ag3228
ag3228
ag3228
ag3225
ag3225
ag3225
ag3225
ag3228
ag3228
ag3228
ag3228
ag3228
ag3228
ag3225
ag3224
aa(lp3263
g3225
ag3224
ag3228
ag3228
ag3228
ag3228
ag3228
ag3228
ag3224
ag3224
ag3224
ag3225
ag3228
ag3228
ag3228
ag3228
ag3228
ag3228
ag3225
ag3225
ag3224
ag3225
ag3228
ag3228
ag3228
ag3228
ag3228
ag3228
ag3225
ag3224
ag3224
ag3225
ag3228
ag3228
ag3228
ag3228
ag3228
ag3228
ag3224
ag3225
ag3224
ag3225
ag3228
ag3228
ag3228
ag3228
ag3228
ag3228
ag3225
ag3225
aa(lp3264
g3225
ag3224
ag3225
ag3225
ag3225
ag3224
ag3225
ag3225
ag3225
ag3224
ag3225
ag3225
ag3224
ag3225
ag3225
ag3225
ag3225
ag3224
ag3224
ag3224
ag3224
ag3224
ag3225
ag3225
ag3224
ag3225
ag3225
ag3225
ag3224
ag3224
ag3225
ag3225
ag3225
ag3225
ag3224
ag3225
ag3225
ag3225
ag3224
ag3225
ag3224
ag3225
ag3224
ag3225
ag3225
ag3225
ag3224
ag3225
ag3224
ag3225
aa(lp3265
g3224
ag3224
ag3224
ag3225
ag3225
ag3224
ag3225
ag3224
ag3224
ag3224
ag3224
ag3224
ag3224
ag3224
ag3225
ag3224
ag3225
ag3225
ag3225
ag3224
ag3225
ag3224
ag3224
ag3224
ag3224
ag3225
ag3225
ag3225
ag3225
ag3224
ag3224
ag3224
ag3224
ag3224
ag3224
ag3224
ag3224
ag3224
ag3224
ag3224
ag3224
ag3224
ag3224
ag3224
ag3224
ag3225
ag3224
ag3225
ag3224
ag3224
aa(lp3266
g3224
ag3225
ag3224
ag3224
ag3224
ag3224
ag3224
ag3224
ag3225
ag3225
ag3224
ag3225
ag3225
ag3224
ag3224
ag3224
ag3224
ag3224
ag3224
ag3224
ag3225
ag3225
ag3224
ag3225
ag3224
ag3224
ag3225
ag3225
ag3225
ag3225
ag3224
ag3225
ag3225
ag3224
ag3225
ag3224
ag3225
ag3224
ag3225
ag3224
ag3225
ag3225
ag3225
ag3225
ag3224
ag3224
ag3224
ag3224
ag3224
ag3225
aa(lp3267
g3224
ag3225
ag3224
ag3225
ag3225
ag3224
ag3225
ag3225
ag3225
ag3224
ag3224
ag3224
ag3225
ag3224
ag3225
ag3225
ag3224
ag3225
ag3225
ag3224
ag3224
ag3225
ag3225
ag3225
ag3224
ag3225
ag3225
ag3224
ag3224
ag3224
ag3224
ag3224
ag3225
ag3225
ag3225
ag3225
ag3225
ag3224
ag3225
ag3224
ag3224
ag3224
ag3224
ag3225
ag3225
ag3224
ag3225
ag3225
ag3224
ag3224
aa(lp3268
g3224
ag3225
ag3228
ag3228
ag3228
ag3228
ag3228
ag3228
ag3224
ag3224
ag3225
ag3225
ag3228
ag3228
ag3228
ag3228
ag3228
ag3228
ag3225
ag3225
ag3224
ag3225
ag3228
ag3228
ag3228
ag3228
ag3228
ag3228
ag3225
ag3224
ag3225
ag3224
ag3228
ag3228
ag3228
ag3228
ag3228
ag3228
ag3225
ag3224
ag3225
ag3225
ag3228
ag3228
ag3228
ag3228
ag3228
ag3228
ag3225
ag3224
aa(lp3269
g3224
ag3225
ag3228
ag3228
ag3228
ag3228
ag3228
ag3228
ag3225
ag3224
ag3224
ag3225
ag3228
ag3228
ag3228
ag3228
ag3228
ag3228
ag3225
ag3225
ag3224
ag3225
ag3228
ag3228
ag3228
ag3228
ag3228
ag3228
ag3225
ag3224
ag3225
ag3225
ag3228
ag3228
ag3228
ag3228
ag3228
ag3228
ag3225
ag3224
ag3224
ag3225
ag3228
ag3228
ag3228
ag3228
ag3228
ag3228
ag3225
ag3224
aa(lp3270
g3224
ag3224
ag3228
ag3228
ag3228
ag3228
ag3228
ag3228
ag3225
ag3224
ag3225
ag3225
ag3228
ag3228
ag3228
ag3228
ag3228
ag3228
ag3224
ag3224
ag3224
ag3225
ag3228
ag3228
ag3228
ag3228
ag3228
ag3228
ag3224
ag3224
ag3224
ag3225
ag3228
ag3228
ag3228
ag3228
ag3228
ag3228
ag3225
ag3224
ag3225
ag3225
ag3228
ag3228
ag3228
ag3228
ag3228
ag3228
ag3225
ag3224
aa(lp3271
g3224
ag3225
ag3228
ag3228
ag3228
ag3228
ag3228
ag3228
ag3224
ag3224
ag3225
ag3225
ag3228
ag3228
ag3228
ag3228
ag3228
ag3228
ag3225
ag3225
ag3224
ag3224
ag3228
ag3228
ag3228
ag3228
ag3228
ag3228
ag3225
ag3224
ag3225
ag3225
ag3228
ag3228
ag3228
ag3228
ag3228
ag3228
ag3225
ag3224
ag3224
ag3224
ag3228
ag3228
ag3228
ag3228
ag3228
ag3228
ag3224
ag3224
aa(lp3272
g3224
ag3225
ag3228
ag3228
ag3228
ag3228
ag3228
ag3228
ag3225
ag3224
ag3224
ag3224
ag3228
ag3228
ag3228
ag3228
ag3228
ag3228
ag3225
ag3224
ag3224
ag3225
ag3228
ag3228
ag3228
ag3228
ag3228
ag3228
ag3225
ag3224
ag3224
ag3224
ag3228
ag3228
ag3228
ag3228
ag3228
ag3228
ag3224
ag3224
ag3225
ag3225
ag3228
ag3228
ag3228
ag3228
ag3228
ag3228
ag3225
ag3224
aa(lp3273
g3224
ag3225
ag3228
ag3228
ag3228
ag3228
ag3228
ag3228
ag3225
ag3224
ag3225
ag3225
ag3228
ag3228
ag3228
ag3228
ag3228
ag3228
ag3225
ag3225
ag3224
ag3225
ag3228
ag3228
ag3228
ag3228
ag3228
ag3228
ag3224
ag3224
ag3225
ag3225
ag3228
ag3228
ag3228
ag3228
ag3228
ag3228
ag3225
ag3224
ag3224
ag3225
ag3228
ag3228
ag3228
ag3228
ag3228
ag3228
ag3225
ag3225
aa(lp3274
g3224
ag3224
ag3224
ag3225
ag3225
ag3224
ag3225
ag3225
ag3225
ag3224
ag3225
ag3224
ag3225
ag3225
ag3225
ag3225
ag3225
ag3224
ag3225
ag3225
ag3224
ag3224
ag3225
ag3225
ag3225
ag3224
ag3225
ag3225
ag3225
ag3224
ag3224
ag3224
ag3225
ag3225
ag3224
ag3225
ag3225
ag3225
ag3224
ag3224
ag3225
ag3225
ag3225
ag3225
ag3224
ag3225
ag3225
ag3225
ag3225
ag3224
aa(lp3275
g3224
ag3225
ag3225
ag3225
ag3224
ag3224
ag3224
ag3224
ag3224
ag3224
ag3224
ag3224
ag3224
ag3224
ag3225
ag3224
ag3224
ag3224
ag3224
ag3224
ag3224
ag3225
ag3225
ag3224
ag3224
ag3224
ag3224
ag3224
ag3224
ag3224
ag3225
ag3224
ag3224
ag3224
ag3224
ag3224
ag3224
ag3225
ag3225
ag3224
ag3224
ag3224
ag3224
ag3224
ag3224
ag3224
ag3224
ag3224
ag3224
ag3224
aasS'roadGrid'
p3276
(iCode.Engine.DungeonGenerator
RoadStruct
p3277
(dp3278
g70
(lp3279
(lp3280
I0
aI0
aI0
aI0
aI0
aI0
aI0
aI0
aI0
aI0
aI0
aI0
aI0
aI0
aI0
aI0
aI0
aI0
aI0
aI0
aI0
aI0
aI0
aI0
aI0
aI0
aI0
aI0
aI0
aI0
aI0
aI0
aI0
aI0
aI0
aI0
aI0
aI0
aI0
aI0
aI0
aI0
aI0
aI0
aI0
aI0
aI0
aI0
aI0
aI0
aa(lp3281
I0
aI0
aI0
aI0
aI0
aI0
aI0
aI0
aI0
aI0
aI0
aI0
aI0
aI0
aI0
aI0
aI0
aI0
aI0
aI0
aI0
aI0
aI0
aI0
aI0
aI0
aI0
aI0
aI0
aI0
aI0
aI0
aI0
aI0
aI0
aI0
aI0
aI0
aI0
aI0
aI0
aI0
aI0
aI0
aI0
aI0
aI0
aI0
aI0
aI0
aa(lp3282
I0
aI0
aI0
aI0
aI0
aI0
aI0
aI0
aI0
aI0
aI0
aI0
aI0
aI0
aI0
aI0
aI0
aI0
aI0
aI0
aI0
aI0
aI0
aI0
aI0
aI0
aI0
aI0
aI0
aI0
aI0
aI0
aI0
aI0
aI0
aI0
aI0
aI0
aI0
aI0
aI0
aI0
aI0
aI0
aI0
aI0
aI0
aI0
aI0
aI0
aa(lp3283
I0
aI0
aI0
aI0
aI0
aI0
aI0
aI0
aI0
aI0
aI0
aI0
aI0
aI0
aI0
aI0
aI0
aI0
aI0
aI0
aI0
aI0
aI0
aI0
aI0
aI0
aI0
aI0
aI0
aI0
aI0
aI0
aI0
aI0
aI0
aI0
aI0
aI0
aI0
aI0
aI0
aI0
aI0
aI0
aI0
aI0
aI0
aI0
aI0
aI0
aa(lp3284
I0
aI0
aI0
aI0
aI0
aI0
aI0
aI0
aI0
aI0
aI0
aI0
aI0
aI0
aI0
aI0
aI0
aI0
aI0
aI0
aI0
aI0
aI0
aI0
aI0
aI0
aI0
aI0
aI0
aI0
aI0
aI0
aI0
aI0
aI0
aI0
aI0
aI0
aI0
aI0
aI0
aI0
aI0
aI0
aI0
aI0
aI0
aI0
aI0
aI0
aa(lp3285
I0
aI0
aI0
aI0
aI0
aI0
aI0
aI0
aI0
aI0
aI0
aI0
aI0
aI0
aI0
aI0
aI0
aI0
aI0
aI0
aI0
aI0
aI0
aI0
aI0
aI0
aI0
aI0
aI0
aI0
aI0
aI0
aI0
aI0
aI0
aI0
aI0
aI0
aI0
aI0
aI0
aI0
aI0
aI0
aI0
aI0
aI0
aI0
aI0
aI0
aa(lp3286
I0
aI0
aI0
aI0
aI0
aI0
aI0
aI0
aI0
aI0
aI0
aI0
aI0
aI0
aI0
aI0
aI0
aI0
aI0
aI0
aI0
aI0
aI0
aI0
aI0
aI0
aI0
aI0
aI0
aI0
aI0
aI0
aI0
aI0
aI0
aI0
aI0
aI0
aI0
aI0
aI0
aI0
aI0
aI0
aI0
aI0
aI0
aI0
aI0
aI0
aa(lp3287
I0
aI0
aI0
aI0
aI0
aI0
aI0
aI0
aI0
aI0
aI0
aI0
aI0
aI0
aI0
aI0
aI0
aI0
aI0
aI0
aI0
aI0
aI0
aI0
aI0
aI0
aI0
aI0
aI0
aI0
aI0
aI0
aI0
aI0
aI0
aI0
aI0
aI0
aI0
aI0
aI0
aI0
aI0
aI0
aI0
aI0
aI0
aI0
aI0
aI0
aa(lp3288
I0
aI0
aI0
aI0
aI0
aI0
aI0
aI0
aI0
aI0
aI0
aI0
aI0
aI0
aI0
aI0
aI0
aI0
aI0
aI0
aI0
aI0
aI0
aI0
aI0
aI0
aI0
aI0
aI0
aI0
aI0
aI0
aI0
aI0
aI0
aI0
aI0
aI0
aI0
aI0
aI0
aI0
aI0
aI0
aI0
aI0
aI0
aI0
aI0
aI0
aa(lp3289
I0
aI0
aI0
aI0
aI0
aI0
aI0
aI0
aI0
aI0
aI0
aI0
aI0
aI0
aI0
aI0
aI0
aI0
aI0
aI0
aI0
aI0
aI0
aI0
aI0
aI0
aI0
aI0
aI0
aI0
aI0
aI0
aI0
aI0
aI0
aI0
aI0
aI0
aI0
aI0
aI0
aI0
aI0
aI0
aI0
aI0
aI0
aI0
aI0
aI0
aa(lp3290
I0
aI0
aI0
aI0
aI0
aI0
aI0
aI0
aI0
aI0
aI0
aI0
aI0
aI0
aI0
aI0
aI0
aI0
aI0
aI0
aI0
aI0
aI0
aI0
aI0
aI0
aI0
aI0
aI0
aI0
aI0
aI0
aI0
aI0
aI0
aI0
aI0
aI0
aI0
aI0
aI0
aI0
aI0
aI0
aI0
aI0
aI0
aI0
aI0
aI0
aa(lp3291
I0
aI0
aI0
aI0
aI0
aI0
aI0
aI0
aI0
aI0
aI0
aI0
aI0
aI0
aI0
aI0
aI0
aI0
aI0
aI0
aI0
aI0
aI0
aI0
aI0
aI0
aI0
aI0
aI0
aI0
aI0
aI0
aI0
aI0
aI0
aI0
aI0
aI0
aI0
aI0
aI0
aI0
aI0
aI0
aI0
aI0
aI0
aI0
aI0
aI0
aa(lp3292
I0
aI0
aI0
aI0
aI0
aI0
aI0
aI0
aI0
aI0
aI0
aI0
aI0
aI0
aI0
aI0
aI0
aI0
aI0
aI0
aI0
aI0
aI0
aI0
aI0
aI0
aI0
aI0
aI0
aI0
aI0
aI0
aI0
aI0
aI0
aI0
aI0
aI0
aI0
aI0
aI0
aI0
aI0
aI0
aI0
aI0
aI0
aI0
aI0
aI0
aa(lp3293
I0
aI0
aI0
aI0
aI0
aI0
aI0
aI0
aI0
aI0
aI0
aI0
aI0
aI0
aI0
aI0
aI0
aI0
aI0
aI0
aI0
aI0
aI0
aI0
aI0
aI0
aI0
aI0
aI0
aI0
aI0
aI0
aI0
aI0
aI0
aI0
aI0
aI0
aI0
aI0
aI0
aI0
aI0
aI0
aI0
aI0
aI0
aI0
aI0
aI0
aa(lp3294
I0
aI0
aI0
aI0
aI0
aI0
aI0
aI0
aI0
aI0
aI0
aI0
aI0
aI0
aI0
aI0
aI0
aI0
aI0
aI0
aI0
aI0
aI0
aI0
aI0
aI0
aI0
aI0
aI0
aI0
aI0
aI0
aI0
aI0
aI0
aI0
aI0
aI0
aI0
aI0
aI0
aI0
aI0
aI0
aI0
aI0
aI0
aI0
aI0
aI0
aa(lp3295
I0
aI0
aI0
aI0
aI0
aI0
aI0
aI0
aI0
aI0
aI0
aI0
aI0
aI0
aI0
aI0
aI0
aI0
aI0
aI0
aI0
aI0
aI0
aI0
aI0
aI0
aI0
aI0
aI0
aI0
aI0
aI0
aI0
aI0
aI0
aI0
aI0
aI0
aI0
aI0
aI0
aI0
aI0
aI0
aI0
aI0
aI0
aI0
aI0
aI0
aa(lp3296
I0
aI0
aI0
aI0
aI0
aI0
aI0
aI0
aI0
aI0
aI0
aI0
aI0
aI0
aI0
aI0
aI0
aI0
aI0
aI0
aI0
aI0
aI0
aI0
aI0
aI0
aI0
aI0
aI0
aI0
aI0
aI0
aI0
aI0
aI0
aI0
aI0
aI0
aI0
aI0
aI0
aI0
aI0
aI0
aI0
aI0
aI0
aI0
aI0
aI0
aa(lp3297
I0
aI0
aI0
aI0
aI0
aI0
aI0
aI0
aI0
aI0
aI0
aI0
aI0
aI0
aI0
aI0
aI0
aI0
aI0
aI0
aI0
aI0
aI0
aI0
aI0
aI0
aI0
aI0
aI0
aI0
aI0
aI0
aI0
aI0
aI0
aI0
aI0
aI0
aI0
aI0
aI0
aI0
aI0
aI0
aI0
aI0
aI0
aI0
aI0
aI0
aa(lp3298
I0
aI0
aI0
aI0
aI0
aI0
aI0
aI0
aI0
aI0
aI0
aI0
aI0
aI0
aI0
aI0
aI0
aI0
aI0
aI0
aI0
aI0
aI0
aI0
aI0
aI0
aI0
aI0
aI0
aI0
aI0
aI0
aI0
aI0
aI0
aI0
aI0
aI0
aI0
aI0
aI0
aI0
aI0
aI0
aI0
aI0
aI0
aI0
aI0
aI0
aa(lp3299
I0
aI0
aI0
aI0
aI0
aI0
aI0
aI0
aI0
aI0
aI0
aI0
aI0
aI0
aI0
aI0
aI0
aI0
aI0
aI0
aI0
aI0
aI0
aI0
aI0
aI0
aI0
aI0
aI0
aI0
aI0
aI0
aI0
aI0
aI0
aI0
aI0
aI0
aI0
aI0
aI0
aI0
aI0
aI0
aI0
aI0
aI0
aI0
aI0
aI0
aa(lp3300
I0
aI0
aI0
aI0
aI0
aI0
aI0
aI0
aI0
aI0
aI0
aI0
aI0
aI0
aI0
aI0
aI0
aI0
aI0
aI0
aI0
aI0
aI0
aI0
aI0
aI0
aI0
aI0
aI0
aI0
aI0
aI0
aI0
aI0
aI0
aI0
aI0
aI0
aI0
aI0
aI0
aI0
aI0
aI0
aI0
aI0
aI0
aI0
aI0
aI0
aa(lp3301
I0
aI0
aI0
aI0
aI0
aI0
aI0
aI0
aI0
aI0
aI0
aI0
aI0
aI0
aI0
aI0
aI0
aI0
aI0
aI0
aI0
aI0
aI0
aI0
aI0
aI0
aI0
aI0
aI0
aI0
aI0
aI0
aI0
aI0
aI0
aI0
aI0
aI0
aI0
aI0
aI0
aI0
aI0
aI0
aI0
aI0
aI0
aI0
aI0
aI0
aa(lp3302
I0
aI0
aI0
aI0
aI0
aI0
aI0
aI0
aI0
aI0
aI0
aI0
aI0
aI0
aI0
aI0
aI0
aI0
aI0
aI0
aI0
aI0
aI0
aI0
aI0
aI0
aI0
aI0
aI0
aI0
aI0
aI0
aI0
aI0
aI0
aI0
aI0
aI0
aI0
aI0
aI0
aI0
aI0
aI0
aI0
aI0
aI0
aI0
aI0
aI0
aa(lp3303
I0
aI0
aI0
aI0
aI0
aI0
aI0
aI0
aI0
aI0
aI0
aI0
aI0
aI0
aI0
aI0
aI0
aI0
aI0
aI0
aI0
aI0
aI0
aI0
aI0
aI0
aI0
aI0
aI0
aI0
aI0
aI0
aI0
aI0
aI0
aI0
aI0
aI0
aI0
aI0
aI0
aI0
aI0
aI0
aI0
aI0
aI0
aI0
aI0
aI0
aa(lp3304
I0
aI0
aI0
aI0
aI0
aI0
aI0
aI0
aI0
aI0
aI0
aI0
aI0
aI0
aI0
aI0
aI0
aI0
aI0
aI0
aI0
aI0
aI0
aI0
aI0
aI0
aI0
aI0
aI0
aI0
aI0
aI0
aI0
aI0
aI0
aI0
aI0
aI0
aI0
aI0
aI0
aI0
aI0
aI0
aI0
aI0
aI0
aI0
aI0
aI0
aa(lp3305
I0
aI0
aI0
aI0
aI0
aI0
aI0
aI0
aI0
aI0
aI0
aI0
aI0
aI0
aI0
aI0
aI0
aI0
aI0
aI0
aI0
aI0
aI0
aI0
aI0
aI0
aI0
aI0
aI0
aI0
aI0
aI0
aI0
aI0
aI0
aI0
aI0
aI0
aI0
aI0
aI0
aI0
aI0
aI0
aI0
aI0
aI0
aI0
aI0
aI0
aa(lp3306
I0
aI0
aI0
aI0
aI0
aI0
aI0
aI0
aI0
aI0
aI0
aI0
aI0
aI0
aI0
aI0
aI0
aI0
aI0
aI0
aI0
aI0
aI0
aI0
aI0
aI0
aI0
aI0
aI0
aI0
aI0
aI0
aI0
aI0
aI0
aI0
aI0
aI0
aI0
aI0
aI0
aI0
aI0
aI0
aI0
aI0
aI0
aI0
aI0
aI0
aa(lp3307
I0
aI0
aI0
aI0
aI0
aI0
aI0
aI0
aI0
aI0
aI0
aI0
aI0
aI0
aI0
aI0
aI0
aI0
aI0
aI0
aI0
aI0
aI0
aI0
aI0
aI0
aI0
aI0
aI0
aI0
aI0
aI0
aI0
aI0
aI0
aI0
aI0
aI0
aI0
aI0
aI0
aI0
aI0
aI0
aI0
aI0
aI0
aI0
aI0
aI0
aa(lp3308
I0
aI0
aI0
aI0
aI0
aI0
aI0
aI0
aI0
aI0
aI0
aI0
aI0
aI0
aI0
aI0
aI0
aI0
aI0
aI0
aI0
aI0
aI0
aI0
aI0
aI0
aI0
aI0
aI0
aI0
aI0
aI0
aI0
aI0
aI0
aI0
aI0
aI0
aI0
aI0
aI0
aI0
aI0
aI0
aI0
aI0
aI0
aI0
aI0
aI0
aa(lp3309
I0
aI0
aI0
aI0
aI0
aI0
aI0
aI0
aI0
aI0
aI0
aI0
aI0
aI0
aI0
aI0
aI0
aI0
aI0
aI0
aI0
aI0
aI0
aI0
aI0
aI0
aI0
aI0
aI0
aI0
aI0
aI0
aI0
aI0
aI0
aI0
aI0
aI0
aI0
aI0
aI0
aI0
aI0
aI0
aI0
aI0
aI0
aI0
aI0
aI0
aa(lp3310
I0
aI0
aI0
aI0
aI0
aI0
aI0
aI0
aI0
aI0
aI0
aI0
aI0
aI0
aI0
aI0
aI0
aI0
aI0
aI0
aI0
aI0
aI0
aI0
aI0
aI0
aI0
aI0
aI0
aI0
aI0
aI0
aI0
aI0
aI0
aI0
aI0
aI0
aI0
aI0
aI0
aI0
aI0
aI0
aI0
aI0
aI0
aI0
aI0
aI0
aa(lp3311
I0
aI0
aI0
aI0
aI0
aI0
aI0
aI0
aI0
aI0
aI0
aI0
aI0
aI0
aI0
aI0
aI0
aI0
aI0
aI0
aI0
aI0
aI0
aI0
aI0
aI0
aI0
aI0
aI0
aI0
aI0
aI0
aI0
aI0
aI0
aI0
aI0
aI0
aI0
aI0
aI0
aI0
aI0
aI0
aI0
aI0
aI0
aI0
aI0
aI0
aa(lp3312
I0
aI0
aI0
aI0
aI0
aI0
aI0
aI0
aI0
aI0
aI0
aI0
aI0
aI0
aI0
aI0
aI0
aI0
aI0
aI0
aI0
aI0
aI0
aI0
aI0
aI0
aI0
aI0
aI0
aI0
aI0
aI0
aI0
aI0
aI0
aI0
aI0
aI0
aI0
aI0
aI0
aI0
aI0
aI0
aI0
aI0
aI0
aI0
aI0
aI0
aa(lp3313
I0
aI0
aI0
aI0
aI0
aI0
aI0
aI0
aI0
aI0
aI0
aI0
aI0
aI0
aI0
aI0
aI0
aI0
aI0
aI0
aI0
aI0
aI0
aI0
aI0
aI0
aI0
aI0
aI0
aI0
aI0
aI0
aI0
aI0
aI0
aI0
aI0
aI0
aI0
aI0
aI0
aI0
aI0
aI0
aI0
aI0
aI0
aI0
aI0
aI0
aa(lp3314
I0
aI0
aI0
aI0
aI0
aI0
aI0
aI0
aI0
aI0
aI0
aI0
aI0
aI0
aI0
aI0
aI0
aI0
aI0
aI0
aI0
aI0
aI0
aI0
aI0
aI0
aI0
aI0
aI0
aI0
aI0
aI0
aI0
aI0
aI0
aI0
aI0
aI0
aI0
aI0
aI0
aI0
aI0
aI0
aI0
aI0
aI0
aI0
aI0
aI0
aa(lp3315
I0
aI0
aI0
aI0
aI0
aI0
aI0
aI0
aI0
aI0
aI0
aI0
aI0
aI0
aI0
aI0
aI0
aI0
aI0
aI0
aI0
aI0
aI0
aI0
aI0
aI0
aI0
aI0
aI0
aI0
aI0
aI0
aI0
aI0
aI0
aI0
aI0
aI0
aI0
aI0
aI0
aI0
aI0
aI0
aI0
aI0
aI0
aI0
aI0
aI0
aa(lp3316
I0
aI0
aI0
aI0
aI0
aI0
aI0
aI0
aI0
aI0
aI0
aI0
aI0
aI0
aI0
aI0
aI0
aI0
aI0
aI0
aI0
aI0
aI0
aI0
aI0
aI0
aI0
aI0
aI0
aI0
aI0
aI0
aI0
aI0
aI0
aI0
aI0
aI0
aI0
aI0
aI0
aI0
aI0
aI0
aI0
aI0
aI0
aI0
aI0
aI0
aa(lp3317
I0
aI0
aI0
aI0
aI0
aI0
aI0
aI0
aI0
aI0
aI0
aI0
aI0
aI0
aI0
aI0
aI0
aI0
aI0
aI0
aI0
aI0
aI0
aI0
aI0
aI0
aI0
aI0
aI0
aI0
aI0
aI0
aI0
aI0
aI0
aI0
aI0
aI0
aI0
aI0
aI0
aI0
aI0
aI0
aI0
aI0
aI0
aI0
aI0
aI0
aa(lp3318
I0
aI0
aI0
aI0
aI0
aI0
aI0
aI0
aI0
aI0
aI0
aI0
aI0
aI0
aI0
aI0
aI0
aI0
aI0
aI0
aI0
aI0
aI0
aI0
aI0
aI0
aI0
aI0
aI0
aI0
aI0
aI0
aI0
aI0
aI0
aI0
aI0
aI0
aI0
aI0
aI0
aI0
aI0
aI0
aI0
aI0
aI0
aI0
aI0
aI0
aa(lp3319
I0
aI0
aI0
aI0
aI0
aI0
aI0
aI0
aI0
aI0
aI0
aI0
aI0
aI0
aI0
aI0
aI0
aI0
aI0
aI0
aI0
aI0
aI0
aI0
aI0
aI0
aI0
aI0
aI0
aI0
aI0
aI0
aI0
aI0
aI0
aI0
aI0
aI0
aI0
aI0
aI0
aI0
aI0
aI0
aI0
aI0
aI0
aI0
aI0
aI0
aa(lp3320
I0
aI0
aI0
aI0
aI0
aI0
aI0
aI0
aI0
aI0
aI0
aI0
aI0
aI0
aI0
aI0
aI0
aI0
aI0
aI0
aI0
aI0
aI0
aI0
aI0
aI0
aI0
aI0
aI0
aI0
aI0
aI0
aI0
aI0
aI0
aI0
aI0
aI0
aI0
aI0
aI0
aI0
aI0
aI0
aI0
aI0
aI0
aI0
aI0
aI0
aa(lp3321
I0
aI0
aI0
aI0
aI0
aI0
aI0
aI0
aI0
aI0
aI0
aI0
aI0
aI0
aI0
aI0
aI0
aI0
aI0
aI0
aI0
aI0
aI0
aI0
aI0
aI0
aI0
aI0
aI0
aI0
aI0
aI0
aI0
aI0
aI0
aI0
aI0
aI0
aI0
aI0
aI0
aI0
aI0
aI0
aI0
aI0
aI0
aI0
aI0
aI0
aa(lp3322
I0
aI0
aI0
aI0
aI0
aI0
aI0
aI0
aI0
aI0
aI0
aI0
aI0
aI0
aI0
aI0
aI0
aI0
aI0
aI0
aI0
aI0
aI0
aI0
aI0
aI0
aI0
aI0
aI0
aI0
aI0
aI0
aI0
aI0
aI0
aI0
aI0
aI0
aI0
aI0
aI0
aI0
aI0
aI0
aI0
aI0
aI0
aI0
aI0
aI0
aa(lp3323
I0
aI0
aI0
aI0
aI0
aI0
aI0
aI0
aI0
aI0
aI0
aI0
aI0
aI0
aI0
aI0
aI0
aI0
aI0
aI0
aI0
aI0
aI0
aI0
aI0
aI0
aI0
aI0
aI0
aI0
aI0
aI0
aI0
aI0
aI0
aI0
aI0
aI0
aI0
aI0
aI0
aI0
aI0
aI0
aI0
aI0
aI0
aI0
aI0
aI0
aa(lp3324
I0
aI0
aI0
aI0
aI0
aI0
aI0
aI0
aI0
aI0
aI0
aI0
aI0
aI0
aI0
aI0
aI0
aI0
aI0
aI0
aI0
aI0
aI0
aI0
aI0
aI0
aI0
aI0
aI0
aI0
aI0
aI0
aI0
aI0
aI0
aI0
aI0
aI0
aI0
aI0
aI0
aI0
aI0
aI0
aI0
aI0
aI0
aI0
aI0
aI0
aa(lp3325
I0
aI0
aI0
aI0
aI0
aI0
aI0
aI0
aI0
aI0
aI0
aI0
aI0
aI0
aI0
aI0
aI0
aI0
aI0
aI0
aI0
aI0
aI0
aI0
aI0
aI0
aI0
aI0
aI0
aI0
aI0
aI0
aI0
aI0
aI0
aI0
aI0
aI0
aI0
aI0
aI0
aI0
aI0
aI0
aI0
aI0
aI0
aI0
aI0
aI0
aa(lp3326
I0
aI0
aI0
aI0
aI0
aI0
aI0
aI0
aI0
aI0
aI0
aI0
aI0
aI0
aI0
aI0
aI0
aI0
aI0
aI0
aI0
aI0
aI0
aI0
aI0
aI0
aI0
aI0
aI0
aI0
aI0
aI0
aI0
aI0
aI0
aI0
aI0
aI0
aI0
aI0
aI0
aI0
aI0
aI0
aI0
aI0
aI0
aI0
aI0
aI0
aa(lp3327
I0
aI0
aI0
aI0
aI0
aI0
aI0
aI0
aI0
aI0
aI0
aI0
aI0
aI0
aI0
aI0
aI0
aI0
aI0
aI0
aI0
aI0
aI0
aI0
aI0
aI0
aI0
aI0
aI0
aI0
aI0
aI0
aI0
aI0
aI0
aI0
aI0
aI0
aI0
aI0
aI0
aI0
aI0
aI0
aI0
aI0
aI0
aI0
aI0
aI0
aa(lp3328
I0
aI0
aI0
aI0
aI0
aI0
aI0
aI0
aI0
aI0
aI0
aI0
aI0
aI0
aI0
aI0
aI0
aI0
aI0
aI0
aI0
aI0
aI0
aI0
aI0
aI0
aI0
aI0
aI0
aI0
aI0
aI0
aI0
aI0
aI0
aI0
aI0
aI0
aI0
aI0
aI0
aI0
aI0
aI0
aI0
aI0
aI0
aI0
aI0
aI0
aa(lp3329
I0
aI0
aI0
aI0
aI0
aI0
aI0
aI0
aI0
aI0
aI0
aI0
aI0
aI0
aI0
aI0
aI0
aI0
aI0
aI0
aI0
aI0
aI0
aI0
aI0
aI0
aI0
aI0
aI0
aI0
aI0
aI0
aI0
aI0
aI0
aI0
aI0
aI0
aI0
aI0
aI0
aI0
aI0
aI0
aI0
aI0
aI0
aI0
aI0
aI0
aasg4
(lp3330
sg125
(I50
I50
tp3331
sbsg125
(I50
I50
tp3332
sb.